(dp1
S'files'
p2
(dp3
S'_Users_ygrinman_Documents_pythonPlayground_realPython_flasktaskr_env_lib_python2_7_site-packages_sqlalchemy_orm_loading'
p4
(dp5
S'index'
p6
(dp7
S'html_filename'
p8
S'_Users_ygrinman_Documents_pythonPlayground_realPython_flasktaskr_env_lib_python2_7_site-packages_sqlalchemy_orm_loading.html'
p9
sS'name'
p10
S'/Users/ygrinman/Documents/pythonPlayground/realPython/flasktaskr/env/lib/python2.7/site-packages/sqlalchemy/orm/loading'
p11
sS'nums'
p12
ccopy_reg
_reconstructor
p13
(ccoverage.results
Numbers
p14
c__builtin__
object
p15
NtRp16
(dp17
S'n_files'
p18
I1
sS'n_branches'
p19
I0
sS'n_statements'
p20
I308
sS'n_excluded'
p21
I0
sS'n_partial_branches'
p22
I0
sS'n_missing'
p23
I167
sS'n_missing_branches'
p24
I0
sbssS'hash'
p25
S"\xdf\xf1\xdb\xef5\xee\n6\x94\x8d'\x88\xde\x14;x"
p26
ssS'_Users_ygrinman_Documents_pythonPlayground_realPython_flasktaskr_env_lib_python2_7_site-packages_sqlalchemy_sql_annotation'
p27
(dp28
g6
(dp29
g8
S'_Users_ygrinman_Documents_pythonPlayground_realPython_flasktaskr_env_lib_python2_7_site-packages_sqlalchemy_sql_annotation.html'
p30
sg10
S'/Users/ygrinman/Documents/pythonPlayground/realPython/flasktaskr/env/lib/python2.7/site-packages/sqlalchemy/sql/annotation'
p31
sg12
g13
(g14
g15
NtRp32
(dp33
g18
I1
sg19
I0
sg20
I97
sg21
I0
sg22
I0
sg23
I25
sg24
I0
sbssg25
S'O\xf4,\x12\xa9\xa3\xb0qN\xcf\xa7Zl\xcf\x91\x05'
p34
ssS'_Users_ygrinman_Documents_pythonPlayground_realPython_flasktaskr_env_lib_python2_7_site-packages_markupsafe__compat'
p35
(dp36
g6
(dp37
g8
S'_Users_ygrinman_Documents_pythonPlayground_realPython_flasktaskr_env_lib_python2_7_site-packages_markupsafe__compat.html'
p38
sg10
S'/Users/ygrinman/Documents/pythonPlayground/realPython/flasktaskr/env/lib/python2.7/site-packages/markupsafe/_compat'
p39
sg12
g13
(g14
g15
NtRp40
(dp41
g18
I1
sg19
I0
sg20
I14
sg21
I0
sg22
I0
sg23
I5
sg24
I0
sbssg25
S'\x99\x16\xdbp\x85/\x12e\xfa.\xcb\xca\xb3T\x01\xdd'
p42
ssS'_Users_ygrinman_Documents_pythonPlayground_realPython_flasktaskr_env_lib_python2_7_site-packages_flask_ctx'
p43
(dp44
g6
(dp45
g8
S'_Users_ygrinman_Documents_pythonPlayground_realPython_flasktaskr_env_lib_python2_7_site-packages_flask_ctx.html'
p46
sg10
S'/Users/ygrinman/Documents/pythonPlayground/realPython/flasktaskr/env/lib/python2.7/site-packages/flask/ctx'
p47
sg12
g13
(g14
g15
NtRp48
(dp49
g18
I1
sg19
I0
sg20
I140
sg21
I0
sg22
I0
sg23
I39
sg24
I0
sbssg25
S'a\xd2+\xee\x9a\xbc\xb15\xac\xfc\xba\x85\xb0j;<'
p50
ssS'_Users_ygrinman_Documents_pythonPlayground_realPython_flasktaskr_env_lib_python2_7_site-packages_sqlalchemy_orm_deprecated_interfaces'
p51
(dp52
g6
(dp53
g8
S'_Users_ygrinman_Documents_pythonPlayground_realPython_flasktaskr_env_lib_python2_7_site-packages_sqlalchemy_orm_deprecated_interfaces.html'
p54
sg10
S'/Users/ygrinman/Documents/pythonPlayground/realPython/flasktaskr/env/lib/python2.7/site-packages/sqlalchemy/orm/deprecated_interfaces'
p55
sg12
g13
(g14
g15
NtRp56
(dp57
g18
I1
sg19
I0
sg20
I91
sg21
I0
sg22
I0
sg23
I50
sg24
I0
sbssg25
S'\xb8\x80\x01O\x94\x1cu\x7f\xa8c\xaa\xceK\\\x0b\xd1'
p58
ssS'_Users_ygrinman_Documents_pythonPlayground_realPython_flasktaskr_env_lib_python2_7_site-packages_flask_json'
p59
(dp60
g6
(dp61
g8
S'_Users_ygrinman_Documents_pythonPlayground_realPython_flasktaskr_env_lib_python2_7_site-packages_flask_json.html'
p62
sg10
S'/Users/ygrinman/Documents/pythonPlayground/realPython/flasktaskr/env/lib/python2.7/site-packages/flask/json'
p63
sg12
g13
(g14
g15
NtRp64
(dp65
g18
I1
sg19
I0
sg20
I83
sg21
I0
sg22
I0
sg23
I39
sg24
I0
sbssg25
S'\x03\xdd{q\xb1Zz\xb5\xe9YE-u\xc6\x9d\xbb'
p66
ssS'_Users_ygrinman_Documents_pythonPlayground_realPython_flasktaskr_env_lib_python2_7_site-packages_sqlalchemy_orm_events'
p67
(dp68
g6
(dp69
g8
S'_Users_ygrinman_Documents_pythonPlayground_realPython_flasktaskr_env_lib_python2_7_site-packages_sqlalchemy_orm_events.html'
p70
sg10
S'/Users/ygrinman/Documents/pythonPlayground/realPython/flasktaskr/env/lib/python2.7/site-packages/sqlalchemy/orm/events'
p71
sg12
g13
(g14
g15
NtRp72
(dp73
g18
I1
sg19
I0
sg20
I257
sg21
I0
sg22
I0
sg23
I100
sg24
I0
sbssg25
S'/\xa7\x84\xaf\x1d\x93*\xc3\x16\xb6Z\x80\xa05\x881'
p74
ssS'_Users_ygrinman_Documents_pythonPlayground_realPython_flasktaskr_env_lib_python2_7_site-packages_flask_wtf_recaptcha___init__'
p75
(dp76
g6
(dp77
g8
S'_Users_ygrinman_Documents_pythonPlayground_realPython_flasktaskr_env_lib_python2_7_site-packages_flask_wtf_recaptcha___init__.html'
p78
sg10
S'/Users/ygrinman/Documents/pythonPlayground/realPython/flasktaskr/env/lib/python2.7/site-packages/flask_wtf/recaptcha/__init__'
p79
sg12
g13
(g14
g15
NtRp80
(dp81
g18
I1
sg19
I0
sg20
I3
sg21
I0
sg22
I0
sg23
I0
sg24
I0
sbssg25
S'4\x19\xb3FA\xfcS%\x10\xd6\x1b\xfa\x01\x97\xd2\xb2'
p82
ssS'_Users_ygrinman_Documents_pythonPlayground_realPython_flasktaskr_env_lib_python2_7_site-packages_sqlalchemy_sql_ddl'
p83
(dp84
g6
(dp85
g8
S'_Users_ygrinman_Documents_pythonPlayground_realPython_flasktaskr_env_lib_python2_7_site-packages_sqlalchemy_sql_ddl.html'
p86
sg10
S'/Users/ygrinman/Documents/pythonPlayground/realPython/flasktaskr/env/lib/python2.7/site-packages/sqlalchemy/sql/ddl'
p87
sg12
g13
(g14
g15
NtRp88
(dp89
g18
I1
sg19
I0
sg20
I245
sg21
I0
sg22
I0
sg23
I79
sg24
I0
sbssg25
S'\x81\x130u~\xce\x80\x1f\x17\xf34V\x01d\x03L'
p90
ssS'_Users_ygrinman_Documents_pythonPlayground_realPython_flasktaskr_env_lib_python2_7_site-packages_flask_sqlalchemy__compat'
p91
(dp92
g6
(dp93
g8
S'_Users_ygrinman_Documents_pythonPlayground_realPython_flasktaskr_env_lib_python2_7_site-packages_flask_sqlalchemy__compat.html'
p94
sg10
S'/Users/ygrinman/Documents/pythonPlayground/realPython/flasktaskr/env/lib/python2.7/site-packages/flask_sqlalchemy/_compat'
p95
sg12
g13
(g14
g15
NtRp96
(dp97
g18
I1
sg19
I0
sg20
I16
sg21
I0
sg22
I0
sg23
I6
sg24
I0
sbssg25
S'\xa5\xa8y\x10{\xe5\xfcm\x0f\xc6\xd4\x1a\xf0\x90Jh'
p98
ssS'_Users_ygrinman_Documents_pythonPlayground_realPython_flasktaskr_env_lib_python2_7_site-packages_sqlalchemy_processors'
p99
(dp100
g6
(dp101
g8
S'_Users_ygrinman_Documents_pythonPlayground_realPython_flasktaskr_env_lib_python2_7_site-packages_sqlalchemy_processors.html'
p102
sg10
S'/Users/ygrinman/Documents/pythonPlayground/realPython/flasktaskr/env/lib/python2.7/site-packages/sqlalchemy/processors'
p103
sg12
g13
(g14
g15
NtRp104
(dp105
g18
I1
sg19
I0
sg20
I83
sg21
I0
sg22
I0
sg23
I68
sg24
I0
sbssg25
S'3\xdaz\x83\xe3\xf8\xe7Ku\xdf\xa5\\S\x80\xf1\xb8'
p106
ssS'_Users_ygrinman_Documents_pythonPlayground_realPython_flasktaskr_env_lib_python2_7_site-packages_sqlalchemy_orm_path_registry'
p107
(dp108
g6
(dp109
g8
S'_Users_ygrinman_Documents_pythonPlayground_realPython_flasktaskr_env_lib_python2_7_site-packages_sqlalchemy_orm_path_registry.html'
p110
sg10
S'/Users/ygrinman/Documents/pythonPlayground/realPython/flasktaskr/env/lib/python2.7/site-packages/sqlalchemy/orm/path_registry'
p111
sg12
g13
(g14
g15
NtRp112
(dp113
g18
I1
sg19
I0
sg20
I129
sg21
I0
sg22
I0
sg23
I46
sg24
I0
sbssg25
S'\x8e_\xac"\x08:m\xfcA\xc4\x1e\x1f\xce\xd8I\xdb'
p114
ssS'_Users_ygrinman_Documents_pythonPlayground_realPython_flasktaskr_env_lib_python2_7_site-packages_wtforms_compat'
p115
(dp116
g6
(dp117
g8
S'_Users_ygrinman_Documents_pythonPlayground_realPython_flasktaskr_env_lib_python2_7_site-packages_wtforms_compat.html'
p118
sg10
S'/Users/ygrinman/Documents/pythonPlayground/realPython/flasktaskr/env/lib/python2.7/site-packages/wtforms/compat'
p119
sg12
g13
(g14
g15
NtRp120
(dp121
g18
I1
sg19
I0
sg20
I14
sg21
I0
sg22
I0
sg23
I5
sg24
I0
sbssg25
S']\xa2\x85\xc0\r\xc0\xb6\x8f\x92g\xeb\xff\xcc\\\xedm'
p122
ssS'_Users_ygrinman_Documents_pythonPlayground_realPython_flasktaskr_env_lib_python2_7_site-packages_sqlalchemy_sql_expression'
p123
(dp124
g6
(dp125
g8
S'_Users_ygrinman_Documents_pythonPlayground_realPython_flasktaskr_env_lib_python2_7_site-packages_sqlalchemy_sql_expression.html'
p126
sg10
S'/Users/ygrinman/Documents/pythonPlayground/realPython/flasktaskr/env/lib/python2.7/site-packages/sqlalchemy/sql/expression'
p127
sg12
g13
(g14
g15
NtRp128
(dp129
g18
I1
sg19
I0
sg20
I67
sg21
I0
sg22
I0
sg23
I0
sg24
I0
sbssg25
S'\xca\x89\xde\x9c\xa1\xa5\xa6%\xc5}\xd1\x0b\xab\xa3\xc7\x1a'
p130
ssS'_Users_ygrinman_Documents_pythonPlayground_realPython_flasktaskr_env_lib_python2_7_site-packages_sqlalchemy_ext___init__'
p131
(dp132
g6
(dp133
g8
S'_Users_ygrinman_Documents_pythonPlayground_realPython_flasktaskr_env_lib_python2_7_site-packages_sqlalchemy_ext___init__.html'
p134
sg10
S'/Users/ygrinman/Documents/pythonPlayground/realPython/flasktaskr/env/lib/python2.7/site-packages/sqlalchemy/ext/__init__'
p135
sg12
g13
(g14
g15
NtRp136
(dp137
g18
I1
sg19
I0
sg20
I0
sg21
I0
sg22
I0
sg23
I0
sg24
I0
sbssg25
S'p\x8f\xc8j\xa2\xf3*\x9c\xbe\xe8\xc0\x9e\xba0\xd4\xec'
p138
ssS'_Users_ygrinman_Documents_pythonPlayground_realPython_flasktaskr_env_lib_python2_7_site-packages_sqlalchemy_sql_operators'
p139
(dp140
g6
(dp141
g8
S'_Users_ygrinman_Documents_pythonPlayground_realPython_flasktaskr_env_lib_python2_7_site-packages_sqlalchemy_sql_operators.html'
p142
sg10
S'/Users/ygrinman/Documents/pythonPlayground/realPython/flasktaskr/env/lib/python2.7/site-packages/sqlalchemy/sql/operators'
p143
sg12
g13
(g14
g15
NtRp144
(dp145
g18
I1
sg19
I0
sg20
I199
sg21
I0
sg22
I0
sg23
I88
sg24
I0
sbssg25
S'\xdd\xa6\x0f-\x88/v\xa5FD@\xd6v)\xcas'
p146
ssS'_Users_ygrinman_Documents_pythonPlayground_realPython_flasktaskr_env_lib_python2_7_site-packages_flask_helpers'
p147
(dp148
g6
(dp149
g8
S'_Users_ygrinman_Documents_pythonPlayground_realPython_flasktaskr_env_lib_python2_7_site-packages_flask_helpers.html'
p150
sg10
S'/Users/ygrinman/Documents/pythonPlayground/realPython/flasktaskr/env/lib/python2.7/site-packages/flask/helpers'
p151
sg12
g13
(g14
g15
NtRp152
(dp153
g18
I1
sg19
I0
sg20
I277
sg21
I0
sg22
I0
sg23
I153
sg24
I0
sbssg25
S'\xd8\x19?r|v\xc7\xd8\x15\x9a-\xce_\xc5\xc7\x07'
p154
ssS'_Users_ygrinman_Documents_pythonPlayground_realPython_flasktaskr_env_lib_python2_7_site-packages_sqlalchemy_orm_util'
p155
(dp156
g6
(dp157
g8
S'_Users_ygrinman_Documents_pythonPlayground_realPython_flasktaskr_env_lib_python2_7_site-packages_sqlalchemy_orm_util.html'
p158
sg10
S'/Users/ygrinman/Documents/pythonPlayground/realPython/flasktaskr/env/lib/python2.7/site-packages/sqlalchemy/orm/util'
p159
sg12
g13
(g14
g15
NtRp160
(dp161
g18
I1
sg19
I0
sg20
I281
sg21
I0
sg22
I0
sg23
I212
sg24
I0
sbssg25
S'%6H7"\xb0\x96\xb4\xc1\x0e\xe1!r\xb0\xe0\xfc'
p162
ssS'_Users_ygrinman_Documents_pythonPlayground_realPython_flasktaskr_env_lib_python2_7_site-packages_sqlalchemy_orm_instrumentation'
p163
(dp164
g6
(dp165
g8
S'_Users_ygrinman_Documents_pythonPlayground_realPython_flasktaskr_env_lib_python2_7_site-packages_sqlalchemy_orm_instrumentation.html'
p166
sg10
S'/Users/ygrinman/Documents/pythonPlayground/realPython/flasktaskr/env/lib/python2.7/site-packages/sqlalchemy/orm/instrumentation'
p167
sg12
g13
(g14
g15
NtRp168
(dp169
g18
I1
sg19
I0
sg20
I239
sg21
I0
sg22
I0
sg23
I98
sg24
I0
sbssg25
S'L_WC\x88\x89\x14\xed*ARr\xfa\x1f\x0ek'
p170
ssS'_Users_ygrinman_Documents_pythonPlayground_realPython_flasktaskr_env_lib_python2_7_site-packages_flask_app'
p171
(dp172
g6
(dp173
g8
S'_Users_ygrinman_Documents_pythonPlayground_realPython_flasktaskr_env_lib_python2_7_site-packages_flask_app.html'
p174
sg10
S'/Users/ygrinman/Documents/pythonPlayground/realPython/flasktaskr/env/lib/python2.7/site-packages/flask/app'
p175
sg12
g13
(g14
g15
NtRp176
(dp177
g18
I1
sg19
I0
sg20
I528
sg21
I0
sg22
I0
sg23
I224
sg24
I0
sbssg25
S'\xb1\xad7\xa9N\x80s\x8d!?\xff,\x83\r\xb8A'
p178
ssS'forms'
p179
(dp180
g6
(dp181
g8
S'forms.html'
p182
sg10
g179
sg12
g13
(g14
g15
NtRp183
(dp184
g18
I1
sg19
I0
sg20
I17
sg21
I0
sg22
I0
sg23
I0
sg24
I0
sbssg25
S'!A\xbe\xedz\xdbI\xfaG\xe5nj\xe2p\x8c\xcf'
p185
ssS'_Users_ygrinman_Documents_pythonPlayground_realPython_flasktaskr_env_lib_python2_7_site-packages_jinja2_environment'
p186
(dp187
g6
(dp188
g8
S'_Users_ygrinman_Documents_pythonPlayground_realPython_flasktaskr_env_lib_python2_7_site-packages_jinja2_environment.html'
p189
sg10
S'/Users/ygrinman/Documents/pythonPlayground/realPython/flasktaskr/env/lib/python2.7/site-packages/jinja2/environment'
p190
sg12
g13
(g14
g15
NtRp191
(dp192
g18
I1
sg19
I0
sg20
I488
sg21
I0
sg22
I0
sg23
I282
sg24
I0
sbssg25
S'\xc4}"\xddPs\x92\xe1b{\x10\x00\xdf\xd6\x16\x96'
p193
ssS'_Users_ygrinman_Documents_pythonPlayground_realPython_flasktaskr_env_lib_python2_7_site-packages_sqlalchemy_util___init__'
p194
(dp195
g6
(dp196
g8
S'_Users_ygrinman_Documents_pythonPlayground_realPython_flasktaskr_env_lib_python2_7_site-packages_sqlalchemy_util___init__.html'
p197
sg10
S'/Users/ygrinman/Documents/pythonPlayground/realPython/flasktaskr/env/lib/python2.7/site-packages/sqlalchemy/util/__init__'
p198
sg12
g13
(g14
g15
NtRp199
(dp200
g18
I1
sg19
I0
sg20
I8
sg21
I0
sg22
I0
sg23
I0
sg24
I0
sbssg25
S'\r4\xc4\x13\x9a#\x1c\x15\xb1\x8a\x8f\xfeP\xd5Rj'
p201
ssS'_Users_ygrinman_Documents_pythonPlayground_realPython_flasktaskr_env_lib_python2_7_site-packages_flask_wtf_csrf'
p202
(dp203
g6
(dp204
g8
S'_Users_ygrinman_Documents_pythonPlayground_realPython_flasktaskr_env_lib_python2_7_site-packages_flask_wtf_csrf.html'
p205
sg10
S'/Users/ygrinman/Documents/pythonPlayground/realPython/flasktaskr/env/lib/python2.7/site-packages/flask_wtf/csrf'
p206
sg12
g13
(g14
g15
NtRp207
(dp208
g18
I1
sg19
I0
sg20
I114
sg21
I0
sg22
I0
sg23
I95
sg24
I0
sbssg25
S'Z\xd5`\xd1\xc6Q\xf2Y\x97m\xc6\\\xd5\x0bq\x9a'
p209
ssS'_Users_ygrinman_Documents_pythonPlayground_realPython_flasktaskr_env_lib_python2_7_site-packages_sqlalchemy_orm_dependency'
p210
(dp211
g6
(dp212
g8
S'_Users_ygrinman_Documents_pythonPlayground_realPython_flasktaskr_env_lib_python2_7_site-packages_sqlalchemy_orm_dependency.html'
p213
sg10
S'/Users/ygrinman/Documents/pythonPlayground/realPython/flasktaskr/env/lib/python2.7/site-packages/sqlalchemy/orm/dependency'
p214
sg12
g13
(g14
g15
NtRp215
(dp216
g18
I1
sg19
I0
sg20
I478
sg21
I0
sg22
I0
sg23
I371
sg24
I0
sbssg25
S'\xe6\xb8\xb8}\x1e\xbb\xc7(\r\x94\xc5\x04\xff\xef\xcf\xe9'
p217
ssS'_Users_ygrinman_Documents_pythonPlayground_realPython_flasktaskr_env_lib_python2_7_site-packages_sqlalchemy_orm_state'
p218
(dp219
g6
(dp220
g8
S'_Users_ygrinman_Documents_pythonPlayground_realPython_flasktaskr_env_lib_python2_7_site-packages_sqlalchemy_orm_state.html'
p221
sg10
S'/Users/ygrinman/Documents/pythonPlayground/realPython/flasktaskr/env/lib/python2.7/site-packages/sqlalchemy/orm/state'
p222
sg12
g13
(g14
g15
NtRp223
(dp224
g18
I1
sg19
I0
sg20
I255
sg21
I0
sg22
I0
sg23
I118
sg24
I0
sbssg25
S'rZ\xe8\xc0\x9eWKf\x95Sxf\x83n\xf7B'
p225
ssS'_Users_ygrinman_Documents_pythonPlayground_realPython_flasktaskr_env_lib_python2_7_site-packages_sqlalchemy_orm_persistence'
p226
(dp227
g6
(dp228
g8
S'_Users_ygrinman_Documents_pythonPlayground_realPython_flasktaskr_env_lib_python2_7_site-packages_sqlalchemy_orm_persistence.html'
p229
sg10
S'/Users/ygrinman/Documents/pythonPlayground/realPython/flasktaskr/env/lib/python2.7/site-packages/sqlalchemy/orm/persistence'
p230
sg12
g13
(g14
g15
NtRp231
(dp232
g18
I1
sg19
I0
sg20
I464
sg21
I0
sg22
I0
sg23
I256
sg24
I0
sbssg25
S'.\xd5\x96\xf1\x12\x9c\xe3\xa2\xe0\x90n\x0b\x08@\x17\xe4'
p233
ssS'_Users_ygrinman_Documents_pythonPlayground_realPython_flasktaskr_env_lib_python2_7_site-packages_jinja2_nodes'
p234
(dp235
g6
(dp236
g8
S'_Users_ygrinman_Documents_pythonPlayground_realPython_flasktaskr_env_lib_python2_7_site-packages_jinja2_nodes.html'
p237
sg10
S'/Users/ygrinman/Documents/pythonPlayground/realPython/flasktaskr/env/lib/python2.7/site-packages/jinja2/nodes'
p238
sg12
g13
(g14
g15
NtRp239
(dp240
g18
I1
sg19
I0
sg20
I423
sg21
I0
sg22
I0
sg23
I153
sg24
I0
sbssg25
S'\xb6\xb6\xf0\x92\x15\xd0\xb2 \x0b"Y\x16\x8b\xef!\x99'
p241
ssS'_Users_ygrinman_Documents_pythonPlayground_realPython_flasktaskr_env_lib_python2_7_site-packages_sqlalchemy_ext_declarative_api'
p242
(dp243
g6
(dp244
g8
S'_Users_ygrinman_Documents_pythonPlayground_realPython_flasktaskr_env_lib_python2_7_site-packages_sqlalchemy_ext_declarative_api.html'
p245
sg10
S'/Users/ygrinman/Documents/pythonPlayground/realPython/flasktaskr/env/lib/python2.7/site-packages/sqlalchemy/ext/declarative/api'
p246
sg12
g13
(g14
g15
NtRp247
(dp248
g18
I1
sg19
I0
sg20
I118
sg21
I0
sg22
I0
sg23
I70
sg24
I0
sbssg25
S'\xe9\xae\x81,\t9`\x0b\xe6\\TH\xbc\x88\x15\xcf'
p249
ssS'_Users_ygrinman_Documents_pythonPlayground_realPython_flasktaskr_env_lib_python2_7_site-packages_sqlalchemy_dialects___init__'
p250
(dp251
g6
(dp252
g8
S'_Users_ygrinman_Documents_pythonPlayground_realPython_flasktaskr_env_lib_python2_7_site-packages_sqlalchemy_dialects___init__.html'
p253
sg10
S'/Users/ygrinman/Documents/pythonPlayground/realPython/flasktaskr/env/lib/python2.7/site-packages/sqlalchemy/dialects/__init__'
p254
sg12
g13
(g14
g15
NtRp255
(dp256
g18
I1
sg19
I0
sg20
I17
sg21
I0
sg22
I0
sg23
I4
sg24
I0
sbssg25
S'[\x8f<\x9a-A\x16\x15\xe1PVQ\xae\xde\xa1Z'
p257
ssS'_Users_ygrinman_Documents_pythonPlayground_realPython_flasktaskr_env_lib_python2_7_site-packages_sqlalchemy_sql_default_comparator'
p258
(dp259
g6
(dp260
g8
S'_Users_ygrinman_Documents_pythonPlayground_realPython_flasktaskr_env_lib_python2_7_site-packages_sqlalchemy_sql_default_comparator.html'
p261
sg10
S'/Users/ygrinman/Documents/pythonPlayground/realPython/flasktaskr/env/lib/python2.7/site-packages/sqlalchemy/sql/default_comparator'
p262
sg12
g13
(g14
g15
NtRp263
(dp264
g18
I1
sg19
I0
sg20
I103
sg21
I0
sg22
I0
sg23
I63
sg24
I0
sbssg25
S'\xd7\x15\x02\xc6\xb2E\xee\xa4_\x9c\x8c\x90\x9e\x8b\xfb\xdf'
p265
ssS'_Users_ygrinman_Documents_pythonPlayground_realPython_flasktaskr_env_lib_python2_7_site-packages_flask_sessions'
p266
(dp267
g6
(dp268
g8
S'_Users_ygrinman_Documents_pythonPlayground_realPython_flasktaskr_env_lib_python2_7_site-packages_flask_sessions.html'
p269
sg10
S'/Users/ygrinman/Documents/pythonPlayground/realPython/flasktaskr/env/lib/python2.7/site-packages/flask/sessions'
p270
sg12
g13
(g14
g15
NtRp271
(dp272
g18
I1
sg19
I0
sg20
I143
sg21
I0
sg22
I0
sg23
I35
sg24
I0
sbssg25
S'f\xa2\xb1\x9c\x0e\xe4I\xac\xfef+\x82,\xdb@\xd6'
p273
ssS'_Users_ygrinman_Documents_pythonPlayground_realPython_flasktaskr_env_lib_python2_7_site-packages_jinja2_filters'
p274
(dp275
g6
(dp276
g8
S'_Users_ygrinman_Documents_pythonPlayground_realPython_flasktaskr_env_lib_python2_7_site-packages_jinja2_filters.html'
p277
sg10
S'/Users/ygrinman/Documents/pythonPlayground/realPython/flasktaskr/env/lib/python2.7/site-packages/jinja2/filters'
p278
sg12
g13
(g14
g15
NtRp279
(dp280
g18
I1
sg19
I0
sg20
I343
sg21
I0
sg22
I0
sg23
I265
sg24
I0
sbssg25
S'\xef#\xc6\xad\x92\x96v^M\x9d\xf0\xfeR\xcal\xc5'
p281
ssS'test'
p282
(dp283
g6
(dp284
g8
S'test.html'
p285
sg10
g282
sg12
g13
(g14
g15
NtRp286
(dp287
g18
I1
sg19
I0
sg20
I36
sg21
I0
sg22
I0
sg23
I2
sg24
I0
sbssg25
S'P~\xcf\x98B\xf8\x83\x81e}\x03 LdD_'
p288
ssS'_Users_ygrinman_Documents_pythonPlayground_realPython_flasktaskr_env_lib_python2_7_site-packages_flask_templating'
p289
(dp290
g6
(dp291
g8
S'_Users_ygrinman_Documents_pythonPlayground_realPython_flasktaskr_env_lib_python2_7_site-packages_flask_templating.html'
p292
sg10
S'/Users/ygrinman/Documents/pythonPlayground/realPython/flasktaskr/env/lib/python2.7/site-packages/flask/templating'
p293
sg12
g13
(g14
g15
NtRp294
(dp295
g18
I1
sg19
I0
sg20
I78
sg21
I0
sg22
I0
sg23
I34
sg24
I0
sbssg25
S'B\xd9X\x88\xedF\x9e\xea\xbbR\xdb\xb8\x8e\xd0\x89\x9b'
p296
ssS'_Users_ygrinman_Documents_pythonPlayground_realPython_flasktaskr_env_lib_python2_7_site-packages_jinja2_optimizer'
p297
(dp298
g6
(dp299
g8
S'_Users_ygrinman_Documents_pythonPlayground_realPython_flasktaskr_env_lib_python2_7_site-packages_jinja2_optimizer.html'
p300
sg10
S'/Users/ygrinman/Documents/pythonPlayground/realPython/flasktaskr/env/lib/python2.7/site-packages/jinja2/optimizer'
p301
sg12
g13
(g14
g15
NtRp302
(dp303
g18
I1
sg19
I0
sg20
I31
sg21
I0
sg22
I0
sg23
I8
sg24
I0
sbssg25
S"v\x90\x17@`\xb3wT\x0e\xa4X'\xf4g\x94."
p304
ssS'_Users_ygrinman_Documents_pythonPlayground_realPython_flasktaskr_env_lib_python2_7_site-packages_jinja2__compat'
p305
(dp306
g6
(dp307
g8
S'_Users_ygrinman_Documents_pythonPlayground_realPython_flasktaskr_env_lib_python2_7_site-packages_jinja2__compat.html'
p308
sg10
S'/Users/ygrinman/Documents/pythonPlayground/realPython/flasktaskr/env/lib/python2.7/site-packages/jinja2/_compat'
p309
sg12
g13
(g14
g15
NtRp310
(dp311
g18
I1
sg19
I0
sg20
I98
sg21
I0
sg22
I0
sg23
I35
sg24
I0
sbssg25
S'@u\t\x99\xbd\xbah\xdc\xa2\x9a\x18b\x12T\x89\x93'
p312
ssS'_Users_ygrinman_Documents_pythonPlayground_realPython_flasktaskr_env_lib_python2_7_site-packages_sqlalchemy_inspection'
p313
(dp314
g6
(dp315
g8
S'_Users_ygrinman_Documents_pythonPlayground_realPython_flasktaskr_env_lib_python2_7_site-packages_sqlalchemy_inspection.html'
p316
sg10
S'/Users/ygrinman/Documents/pythonPlayground/realPython/flasktaskr/env/lib/python2.7/site-packages/sqlalchemy/inspection'
p317
sg12
g13
(g14
g15
NtRp318
(dp319
g18
I1
sg19
I0
sg20
I28
sg21
I0
sg22
I0
sg23
I2
sg24
I0
sbssg25
S'\xe1\xf1\xac<\x08|\xab\xcbpTe\xdboJg\x05'
p320
ssS'_Users_ygrinman_Documents_pythonPlayground_realPython_flasktaskr_env_lib_python2_7_site-packages_flask_wtf_recaptcha_fields'
p321
(dp322
g6
(dp323
g8
S'_Users_ygrinman_Documents_pythonPlayground_realPython_flasktaskr_env_lib_python2_7_site-packages_flask_wtf_recaptcha_fields.html'
p324
sg10
S'/Users/ygrinman/Documents/pythonPlayground/realPython/flasktaskr/env/lib/python2.7/site-packages/flask_wtf/recaptcha/fields'
p325
sg12
g13
(g14
g15
NtRp326
(dp327
g18
I1
sg19
I0
sg20
I10
sg21
I0
sg22
I0
sg23
I2
sg24
I0
sbssg25
S'b\xa9\xc8#Ez,\xaf\x89\x9c\x1b\x90f\xdd\x81>'
p328
ssS'_Users_ygrinman_Documents_pythonPlayground_realPython_flasktaskr_env_lib_python2_7_site-packages_sqlalchemy_engine_util'
p329
(dp330
g6
(dp331
g8
S'_Users_ygrinman_Documents_pythonPlayground_realPython_flasktaskr_env_lib_python2_7_site-packages_sqlalchemy_engine_util.html'
p332
sg10
S'/Users/ygrinman/Documents/pythonPlayground/realPython/flasktaskr/env/lib/python2.7/site-packages/sqlalchemy/engine/util'
p333
sg12
g13
(g14
g15
NtRp334
(dp335
g18
I1
sg19
I0
sg20
I33
sg21
I0
sg22
I0
sg23
I28
sg24
I0
sbssg25
S'i/F\xe1.\xfeu\x8eyH\x17\x1c\xe1\\]\xf9'
p336
ssS'_Users_ygrinman_Documents_pythonPlayground_realPython_flasktaskr_env_lib_python2_7_site-packages_sqlalchemy_orm_collections'
p337
(dp338
g6
(dp339
g8
S'_Users_ygrinman_Documents_pythonPlayground_realPython_flasktaskr_env_lib_python2_7_site-packages_sqlalchemy_orm_collections.html'
p340
sg10
S'/Users/ygrinman/Documents/pythonPlayground/realPython/flasktaskr/env/lib/python2.7/site-packages/sqlalchemy/orm/collections'
p341
sg12
g13
(g14
g15
NtRp342
(dp343
g18
I1
sg19
I0
sg20
I691
sg21
I0
sg22
I0
sg23
I391
sg24
I0
sbssg25
S'l\xd5e\x88w\x06\x86>\xe0\xa5%M\x8bl\x0f\x93'
p344
ssS'_Users_ygrinman_Documents_pythonPlayground_realPython_flasktaskr_env_lib_python2_7_site-packages_werkzeug_test'
p345
(dp346
g6
(dp347
g8
S'_Users_ygrinman_Documents_pythonPlayground_realPython_flasktaskr_env_lib_python2_7_site-packages_werkzeug_test.html'
p348
sg10
S'/Users/ygrinman/Documents/pythonPlayground/realPython/flasktaskr/env/lib/python2.7/site-packages/werkzeug/test'
p349
sg12
g13
(g14
g15
NtRp350
(dp351
g18
I1
sg19
I0
sg20
I458
sg21
I0
sg22
I0
sg23
I178
sg24
I0
sbssg25
S'\xc7?\xdcB\xa6\x86\x7f)\x9f\x9a\x118`\xbb\\b'
p352
ssS'_Users_ygrinman_Documents_pythonPlayground_realPython_flasktaskr_env_lib_python2_7_site-packages_sqlalchemy_orm_scoping'
p353
(dp354
g6
(dp355
g8
S'_Users_ygrinman_Documents_pythonPlayground_realPython_flasktaskr_env_lib_python2_7_site-packages_sqlalchemy_orm_scoping.html'
p356
sg10
S'/Users/ygrinman/Documents/pythonPlayground/realPython/flasktaskr/env/lib/python2.7/site-packages/sqlalchemy/orm/scoping'
p357
sg12
g13
(g14
g15
NtRp358
(dp359
g18
I1
sg19
I0
sg20
I63
sg21
I0
sg22
I0
sg23
I26
sg24
I0
sbssg25
S'\xfe\x97+\x94%\x9a\xbd\xea\xe7\xae\xd8(A\xa2\xa0z'
p360
ssS'_Users_ygrinman_Documents_pythonPlayground_realPython_flasktaskr_env_lib_python2_7_site-packages_sqlalchemy_event_attr'
p361
(dp362
g6
(dp363
g8
S'_Users_ygrinman_Documents_pythonPlayground_realPython_flasktaskr_env_lib_python2_7_site-packages_sqlalchemy_event_attr.html'
p364
sg10
S'/Users/ygrinman/Documents/pythonPlayground/realPython/flasktaskr/env/lib/python2.7/site-packages/sqlalchemy/event/attr'
p365
sg12
g13
(g14
g15
NtRp366
(dp367
g18
I1
sg19
I0
sg20
I213
sg21
I0
sg22
I0
sg23
I67
sg24
I0
sbssg25
S'\xf0MN\n\x12\x0e\xb4#\xbb\x02\xe6@OU.\xe8'
p368
ssS'_Users_ygrinman_Documents_pythonPlayground_realPython_flasktaskr_env_lib_python2_7_site-packages_jinja2___init__'
p369
(dp370
g6
(dp371
g8
S'_Users_ygrinman_Documents_pythonPlayground_realPython_flasktaskr_env_lib_python2_7_site-packages_jinja2___init__.html'
p372
sg10
S'/Users/ygrinman/Documents/pythonPlayground/realPython/flasktaskr/env/lib/python2.7/site-packages/jinja2/__init__'
p373
sg12
g13
(g14
g15
NtRp374
(dp375
g18
I1
sg19
I0
sg20
I11
sg21
I0
sg22
I0
sg23
I0
sg24
I0
sbssg25
S'\\\r\x9b(\x8d\x88\x89\xaaaX\xe8\xfc\x15~=!'
p376
ssS'_Users_ygrinman_Documents_pythonPlayground_realPython_flasktaskr_env_lib_python2_7_site-packages_flask_sqlalchemy___init__'
p377
(dp378
g6
(dp379
g8
S'_Users_ygrinman_Documents_pythonPlayground_realPython_flasktaskr_env_lib_python2_7_site-packages_flask_sqlalchemy___init__.html'
p380
sg10
S'/Users/ygrinman/Documents/pythonPlayground/realPython/flasktaskr/env/lib/python2.7/site-packages/flask_sqlalchemy/__init__'
p381
sg12
g13
(g14
g15
NtRp382
(dp383
g18
I1
sg19
I0
sg20
I431
sg21
I0
sg22
I0
sg23
I110
sg24
I0
sbssg25
S"\xdb\xea\xf9\xbd>@\xb1\xa4\x14\xa5'\xed-\xb5\x9f?"
p384
ssS'_Users_ygrinman_Documents_pythonPlayground_realPython_flasktaskr_env_lib_python2_7_site-packages_flask_wrappers'
p385
(dp386
g6
(dp387
g8
S'_Users_ygrinman_Documents_pythonPlayground_realPython_flasktaskr_env_lib_python2_7_site-packages_flask_wrappers.html'
p388
sg10
S'/Users/ygrinman/Documents/pythonPlayground/realPython/flasktaskr/env/lib/python2.7/site-packages/flask/wrappers'
p389
sg12
g13
(g14
g15
NtRp390
(dp391
g18
I1
sg19
I0
sg20
I62
sg21
I0
sg22
I0
sg23
I32
sg24
I0
sbssg25
S'\x95\xe222\xaf\x83v\xb1\x13\x991\x96\xe2\xf4\x05\x17'
p392
ssS'_Users_ygrinman_Documents_pythonPlayground_realPython_flasktaskr_env_lib_python2_7_site-packages_wtforms___init__'
p393
(dp394
g6
(dp395
g8
S'_Users_ygrinman_Documents_pythonPlayground_realPython_flasktaskr_env_lib_python2_7_site-packages_wtforms___init__.html'
p396
sg10
S'/Users/ygrinman/Documents/pythonPlayground/realPython/flasktaskr/env/lib/python2.7/site-packages/wtforms/__init__'
p397
sg12
g13
(g14
g15
NtRp398
(dp399
g18
I1
sg19
I0
sg20
I5
sg21
I0
sg22
I0
sg23
I0
sg24
I0
sbssg25
S'\x96\xfa\xa5*\x1e<\xfb\xf9\x9a\xb8\xe2\xb8[\xcb\x13\x93'
p400
ssS'_Users_ygrinman_Documents_pythonPlayground_realPython_flasktaskr_env_lib_python2_7_site-packages_wtforms_widgets___init__'
p401
(dp402
g6
(dp403
g8
S'_Users_ygrinman_Documents_pythonPlayground_realPython_flasktaskr_env_lib_python2_7_site-packages_wtforms_widgets___init__.html'
p404
sg10
S'/Users/ygrinman/Documents/pythonPlayground/realPython/flasktaskr/env/lib/python2.7/site-packages/wtforms/widgets/__init__'
p405
sg12
g13
(g14
g15
NtRp406
(dp407
g18
I1
sg19
I0
sg20
I2
sg21
I0
sg22
I0
sg23
I0
sg24
I0
sbssg25
S'\xb7\xdd\xd5\x82\x17\xa4\xfeh?\xf5\xe8\xe5\xe6\x8blQ'
p408
ssS'_Users_ygrinman_Documents_pythonPlayground_realPython_flasktaskr_env_lib_python2_7_site-packages_flask_wtf_i18n'
p409
(dp410
g6
(dp411
g8
S'_Users_ygrinman_Documents_pythonPlayground_realPython_flasktaskr_env_lib_python2_7_site-packages_flask_wtf_i18n.html'
p412
sg10
S'/Users/ygrinman/Documents/pythonPlayground/realPython/flasktaskr/env/lib/python2.7/site-packages/flask_wtf/i18n'
p413
sg12
g13
(g14
g15
NtRp414
(dp415
g18
I1
sg19
I0
sg20
I39
sg21
I0
sg22
I0
sg23
I36
sg24
I0
sbssg25
S"\xfd,\n/'\xd3eK\x1dg\xfb&w\xe9\x9b\xca"
p416
ssS'_Users_ygrinman_Documents_pythonPlayground_realPython_flasktaskr_env_lib_python2_7_site-packages_sqlalchemy_engine_default'
p417
(dp418
g6
(dp419
g8
S'_Users_ygrinman_Documents_pythonPlayground_realPython_flasktaskr_env_lib_python2_7_site-packages_sqlalchemy_engine_default.html'
p420
sg10
S'/Users/ygrinman/Documents/pythonPlayground/realPython/flasktaskr/env/lib/python2.7/site-packages/sqlalchemy/engine/default'
p421
sg12
g13
(g14
g15
NtRp422
(dp423
g18
I1
sg19
I0
sg20
I481
sg21
I0
sg22
I0
sg23
I188
sg24
I0
sbssg25
S'\x8e\xd2\xc2\xb1\xd4\x04\xdc\x08\x82\xecU\x19\x17\xd3\xaf\xe6'
p424
ssS'_Users_ygrinman_Documents_pythonPlayground_realPython_flasktaskr_env_lib_python2_7_site-packages_sqlalchemy_sql___init__'
p425
(dp426
g6
(dp427
g8
S'_Users_ygrinman_Documents_pythonPlayground_realPython_flasktaskr_env_lib_python2_7_site-packages_sqlalchemy_sql___init__.html'
p428
sg10
S'/Users/ygrinman/Documents/pythonPlayground/realPython/flasktaskr/env/lib/python2.7/site-packages/sqlalchemy/sql/__init__'
p429
sg12
g13
(g14
g15
NtRp430
(dp431
g18
I1
sg19
I0
sg20
I15
sg21
I0
sg22
I0
sg23
I0
sg24
I0
sbssg25
S'\xe68mT\xea\xcb\xd0\xecJ\xa5\x88\xea\xb9\xd8\xcdh'
p432
ssS'_Users_ygrinman_Documents_pythonPlayground_realPython_flasktaskr_env_lib_python2_7_site-packages_sqlalchemy_util_compat'
p433
(dp434
g6
(dp435
g8
S'_Users_ygrinman_Documents_pythonPlayground_realPython_flasktaskr_env_lib_python2_7_site-packages_sqlalchemy_util_compat.html'
p436
sg10
S'/Users/ygrinman/Documents/pythonPlayground/realPython/flasktaskr/env/lib/python2.7/site-packages/sqlalchemy/util/compat'
p437
sg12
g13
(g14
g15
NtRp438
(dp439
g18
I1
sg19
I0
sg20
I173
sg21
I0
sg22
I0
sg23
I98
sg24
I0
sbssg25
S'\x99\x8cQY)Dp\xa7 G\xceG\x84\x9fZ\xb0'
p440
ssS'_Users_ygrinman_Documents_pythonPlayground_realPython_flasktaskr_env_lib_python2_7_site-packages_flask_wtf__compat'
p441
(dp442
g6
(dp443
g8
S'_Users_ygrinman_Documents_pythonPlayground_realPython_flasktaskr_env_lib_python2_7_site-packages_flask_wtf__compat.html'
p444
sg10
S'/Users/ygrinman/Documents/pythonPlayground/realPython/flasktaskr/env/lib/python2.7/site-packages/flask_wtf/_compat'
p445
sg12
g13
(g14
g15
NtRp446
(dp447
g18
I1
sg19
I0
sg20
I10
sg21
I0
sg22
I0
sg23
I5
sg24
I0
sbssg25
S'I\xa3\xb5\x0b\x98\xe4?~/^\xdeK\x8eH\xd1S'
p448
ssS'_Users_ygrinman_Documents_pythonPlayground_realPython_flasktaskr_env_lib_python2_7_site-packages_sqlalchemy_types'
p449
(dp450
g6
(dp451
g8
S'_Users_ygrinman_Documents_pythonPlayground_realPython_flasktaskr_env_lib_python2_7_site-packages_sqlalchemy_types.html'
p452
sg10
S'/Users/ygrinman/Documents/pythonPlayground/realPython/flasktaskr/env/lib/python2.7/site-packages/sqlalchemy/types'
p453
sg12
g13
(g14
g15
NtRp454
(dp455
g18
I1
sg19
I0
sg20
I4
sg21
I0
sg22
I0
sg23
I0
sg24
I0
sbssg25
S"r\xd0\x1e\x80\x1e\xa3\x9c\xd0x'9\xc9\xc7\xed\xb0\x99"
p456
ssS'_Users_ygrinman_Documents_pythonPlayground_realPython_flasktaskr_env_lib_python2_7_site-packages_wtforms_ext_csrf_fields'
p457
(dp458
g6
(dp459
g8
S'_Users_ygrinman_Documents_pythonPlayground_realPython_flasktaskr_env_lib_python2_7_site-packages_wtforms_ext_csrf_fields.html'
p460
sg10
S'/Users/ygrinman/Documents/pythonPlayground/realPython/flasktaskr/env/lib/python2.7/site-packages/wtforms/ext/csrf/fields'
p461
sg12
g13
(g14
g15
NtRp462
(dp463
g18
I1
sg19
I0
sg20
I7
sg21
I0
sg22
I0
sg23
I1
sg24
I0
sbssg25
S'a\xbeb\xa19%\x0enZZ\xc0\x81\t\x92?\xe7'
p464
ssS'_Users_ygrinman_Documents_pythonPlayground_realPython_flasktaskr_env_lib_python2_7_site-packages_sqlalchemy_sql_type_api'
p465
(dp466
g6
(dp467
g8
S'_Users_ygrinman_Documents_pythonPlayground_realPython_flasktaskr_env_lib_python2_7_site-packages_sqlalchemy_sql_type_api.html'
p468
sg10
S'/Users/ygrinman/Documents/pythonPlayground/realPython/flasktaskr/env/lib/python2.7/site-packages/sqlalchemy/sql/type_api'
p469
sg12
g13
(g14
g15
NtRp470
(dp471
g18
I1
sg19
I0
sg20
I260
sg21
I0
sg22
I0
sg23
I122
sg24
I0
sbssg25
S'\xf8\xb5L@\x99\x0eci\r\xca\x985Cvt&'
p472
ssS'_Users_ygrinman_Documents_pythonPlayground_realPython_flasktaskr_env_lib_python2_7_site-packages_sqlalchemy_sql_schema'
p473
(dp474
g6
(dp475
g8
S'_Users_ygrinman_Documents_pythonPlayground_realPython_flasktaskr_env_lib_python2_7_site-packages_sqlalchemy_sql_schema.html'
p476
sg10
S'/Users/ygrinman/Documents/pythonPlayground/realPython/flasktaskr/env/lib/python2.7/site-packages/sqlalchemy/sql/schema'
p477
sg12
g13
(g14
g15
NtRp478
(dp479
g18
I1
sg19
I0
sg20
I1020
sg21
I0
sg22
I0
sg23
I515
sg24
I0
sbssg25
S'U.\x96M\xbb8W$\x81\xc5\x974\xa4\x82\xf5f'
p480
ssS'_Users_ygrinman_Documents_pythonPlayground_realPython_flasktaskr_env_lib_python2_7_site-packages_sqlalchemy_orm_dynamic'
p481
(dp482
g6
(dp483
g8
S'_Users_ygrinman_Documents_pythonPlayground_realPython_flasktaskr_env_lib_python2_7_site-packages_sqlalchemy_orm_dynamic.html'
p484
sg10
S'/Users/ygrinman/Documents/pythonPlayground/realPython/flasktaskr/env/lib/python2.7/site-packages/sqlalchemy/orm/dynamic'
p485
sg12
g13
(g14
g15
NtRp486
(dp487
g18
I1
sg19
I0
sg20
I198
sg21
I0
sg22
I0
sg23
I144
sg24
I0
sbssg25
S'\xf5\xec\xc4"\xf9\x8e|J\xd2\'m\x97\xec5\xaf\x19'
p488
ssS'_Users_ygrinman_Documents_pythonPlayground_realPython_flasktaskr_env_lib_python2_7_site-packages_sqlalchemy_sql_selectable'
p489
(dp490
g6
(dp491
g8
S'_Users_ygrinman_Documents_pythonPlayground_realPython_flasktaskr_env_lib_python2_7_site-packages_sqlalchemy_sql_selectable.html'
p492
sg10
S'/Users/ygrinman/Documents/pythonPlayground/realPython/flasktaskr/env/lib/python2.7/site-packages/sqlalchemy/sql/selectable'
p493
sg12
g13
(g14
g15
NtRp494
(dp495
g18
I1
sg19
I0
sg20
I886
sg21
I0
sg22
I0
sg23
I497
sg24
I0
sbssg25
S'\x87\x04=\x93\x93\xcdrR#8\x94K\xe8m\xbd\x1e'
p496
ssS'_Users_ygrinman_Documents_pythonPlayground_realPython_flasktaskr_env_lib_python2_7_site-packages_wtforms_form'
p497
(dp498
g6
(dp499
g8
S'_Users_ygrinman_Documents_pythonPlayground_realPython_flasktaskr_env_lib_python2_7_site-packages_wtforms_form.html'
p500
sg10
S'/Users/ygrinman/Documents/pythonPlayground/realPython/flasktaskr/env/lib/python2.7/site-packages/wtforms/form'
p501
sg12
g13
(g14
g15
NtRp502
(dp503
g18
I1
sg19
I0
sg20
I122
sg21
I0
sg22
I0
sg23
I42
sg24
I0
sbssg25
S'\xcda\xf3 \x04\xfbz\xa4+\xbb\xe0]\x86\x86\xcb\x9f'
p504
ssS'_Users_ygrinman_Documents_pythonPlayground_realPython_flasktaskr_env_lib_python2_7_site-packages_sqlalchemy___init__'
p505
(dp506
g6
(dp507
g8
S'_Users_ygrinman_Documents_pythonPlayground_realPython_flasktaskr_env_lib_python2_7_site-packages_sqlalchemy___init__.html'
p508
sg10
S'/Users/ygrinman/Documents/pythonPlayground/realPython/flasktaskr/env/lib/python2.7/site-packages/sqlalchemy/__init__'
p509
sg12
g13
(g14
g15
NtRp510
(dp511
g18
I1
sg19
I0
sg20
I13
sg21
I0
sg22
I0
sg23
I0
sg24
I0
sbssg25
S'\xfbUC\xff\xb0X\xa5\x08\x11I\x06\xfdF\xf3M\x01'
p512
ssS'_Users_ygrinman_Documents_pythonPlayground_realPython_flasktaskr_env_lib_python2_7_site-packages_werkzeug_formparser'
p513
(dp514
g6
(dp515
g8
S'_Users_ygrinman_Documents_pythonPlayground_realPython_flasktaskr_env_lib_python2_7_site-packages_werkzeug_formparser.html'
p516
sg10
S'/Users/ygrinman/Documents/pythonPlayground/realPython/flasktaskr/env/lib/python2.7/site-packages/werkzeug/formparser'
p517
sg12
g13
(g14
g15
NtRp518
(dp519
g18
I1
sg19
I0
sg20
I246
sg21
I4
sg22
I0
sg23
I173
sg24
I0
sbssg25
S'mR{\x9c\xd3\x12\xce_\x1a\x152rIz\xd7\xae'
p520
ssS'_Users_ygrinman_Documents_pythonPlayground_realPython_flasktaskr_env_lib_python2_7_site-packages_sqlalchemy_orm_attributes'
p521
(dp522
g6
(dp523
g8
S'_Users_ygrinman_Documents_pythonPlayground_realPython_flasktaskr_env_lib_python2_7_site-packages_sqlalchemy_orm_attributes.html'
p524
sg10
S'/Users/ygrinman/Documents/pythonPlayground/realPython/flasktaskr/env/lib/python2.7/site-packages/sqlalchemy/orm/attributes'
p525
sg12
g13
(g14
g15
NtRp526
(dp527
g18
I1
sg19
I0
sg20
I622
sg21
I0
sg22
I0
sg23
I365
sg24
I0
sbssg25
S'\x12~`@\x0bn\xeb\xf9\x83=J\xe1A\x08\x19q'
p528
ssS'_Users_ygrinman_Documents_pythonPlayground_realPython_flasktaskr_env_lib_python2_7_site-packages_sqlalchemy_orm_identity'
p529
(dp530
g6
(dp531
g8
S'_Users_ygrinman_Documents_pythonPlayground_realPython_flasktaskr_env_lib_python2_7_site-packages_sqlalchemy_orm_identity.html'
p532
sg10
S'/Users/ygrinman/Documents/pythonPlayground/realPython/flasktaskr/env/lib/python2.7/site-packages/sqlalchemy/orm/identity'
p533
sg12
g13
(g14
g15
NtRp534
(dp535
g18
I1
sg19
I0
sg20
I164
sg21
I0
sg22
I0
sg23
I86
sg24
I0
sbssg25
S's[\xfd\xa5\xef\xae\x94\x1brI\x13\xda\xfd\xba30'
p536
ssS'_Users_ygrinman_Documents_pythonPlayground_realPython_flasktaskr_env_lib_python2_7_site-packages_jinja2_lexer'
p537
(dp538
g6
(dp539
g8
S'_Users_ygrinman_Documents_pythonPlayground_realPython_flasktaskr_env_lib_python2_7_site-packages_jinja2_lexer.html'
p540
sg10
S'/Users/ygrinman/Documents/pythonPlayground/realPython/flasktaskr/env/lib/python2.7/site-packages/jinja2/lexer'
p541
sg12
g13
(g14
g15
NtRp542
(dp543
g18
I1
sg19
I0
sg20
I346
sg21
I0
sg22
I0
sg23
I80
sg24
I0
sbssg25
S'\x81\xe4\xbf\x163\x1c\xa6\xfb\xe60\xd9[\xdb\xa2\x13\n'
p544
ssS'_Users_ygrinman_Documents_pythonPlayground_realPython_flasktaskr_env_lib_python2_7_site-packages_sqlalchemy_sql_sqltypes'
p545
(dp546
g6
(dp547
g8
S'_Users_ygrinman_Documents_pythonPlayground_realPython_flasktaskr_env_lib_python2_7_site-packages_sqlalchemy_sql_sqltypes.html'
p548
sg10
S'/Users/ygrinman/Documents/pythonPlayground/realPython/flasktaskr/env/lib/python2.7/site-packages/sqlalchemy/sql/sqltypes'
p549
sg12
g13
(g14
g15
NtRp550
(dp551
g18
I1
sg19
I0
sg20
I526
sg21
I0
sg22
I0
sg23
I284
sg24
I0
sbssg25
S'\xf0\xfaT\x85e\xd4\x18H\r,\x83\xaf\xab\r\xce\xf0'
p552
ssS'_Users_ygrinman_Documents_pythonPlayground_realPython_flasktaskr_env_lib_python2_7_site-packages_jinja2_bccache'
p553
(dp554
g6
(dp555
g8
S'_Users_ygrinman_Documents_pythonPlayground_realPython_flasktaskr_env_lib_python2_7_site-packages_jinja2_bccache.html'
p556
sg10
S'/Users/ygrinman/Documents/pythonPlayground/realPython/flasktaskr/env/lib/python2.7/site-packages/jinja2/bccache'
p557
sg12
g13
(g14
g15
NtRp558
(dp559
g18
I1
sg19
I0
sg20
I147
sg21
I0
sg22
I0
sg23
I104
sg24
I0
sbssg25
S'r\xee\xabK\x8f\x01\xb0\xfa\xa2rl\xe3)n]\xc4'
p560
ssS'_Users_ygrinman_Documents_pythonPlayground_realPython_flasktaskr_env_lib_python2_7_site-packages_flask_wtf_recaptcha_widgets'
p561
(dp562
g6
(dp563
g8
S'_Users_ygrinman_Documents_pythonPlayground_realPython_flasktaskr_env_lib_python2_7_site-packages_flask_wtf_recaptcha_widgets.html'
p564
sg10
S'/Users/ygrinman/Documents/pythonPlayground/realPython/flasktaskr/env/lib/python2.7/site-packages/flask_wtf/recaptcha/widgets'
p565
sg12
g13
(g14
g15
NtRp566
(dp567
g18
I1
sg19
I0
sg20
I38
sg21
I0
sg22
I0
sg23
I22
sg24
I0
sbssg25
S'\xb0\x9d03\xb46&\xc5\x89\xd1d\x1bV\x18\x9cH'
p568
ssS'_Users_ygrinman_Documents_pythonPlayground_realPython_flasktaskr_env_lib_python2_7_site-packages_jinja2_defaults'
p569
(dp570
g6
(dp571
g8
S'_Users_ygrinman_Documents_pythonPlayground_realPython_flasktaskr_env_lib_python2_7_site-packages_jinja2_defaults.html'
p572
sg10
S'/Users/ygrinman/Documents/pythonPlayground/realPython/flasktaskr/env/lib/python2.7/site-packages/jinja2/defaults'
p573
sg12
g13
(g14
g15
NtRp574
(dp575
g18
I1
sg19
I0
sg20
I19
sg21
I0
sg22
I0
sg23
I0
sg24
I0
sbssg25
S'\xe2s1\x07\x11\xcc\xb8t@\xa5n<\x98\x97"j'
p576
ssS'_Users_ygrinman_Documents_pythonPlayground_realPython_flasktaskr_env_lib_python2_7_site-packages_sqlalchemy_dialects_sqlite___init__'
p577
(dp578
g6
(dp579
g8
S'_Users_ygrinman_Documents_pythonPlayground_realPython_flasktaskr_env_lib_python2_7_site-packages_sqlalchemy_dialects_sqlite___init__.html'
p580
sg10
S'/Users/ygrinman/Documents/pythonPlayground/realPython/flasktaskr/env/lib/python2.7/site-packages/sqlalchemy/dialects/sqlite/__init__'
p581
sg12
g13
(g14
g15
NtRp582
(dp583
g18
I1
sg19
I0
sg20
I4
sg21
I0
sg22
I0
sg23
I0
sg24
I0
sbssg25
S'\x89] \xb3\xcb\xf8\xe0hFayk>\xa5\xef\xc4'
p584
ssS'_Users_ygrinman_Documents_pythonPlayground_realPython_flasktaskr_env_lib_python2_7_site-packages_sqlalchemy_interfaces'
p585
(dp586
g6
(dp587
g8
S'_Users_ygrinman_Documents_pythonPlayground_realPython_flasktaskr_env_lib_python2_7_site-packages_sqlalchemy_interfaces.html'
p588
sg10
S'/Users/ygrinman/Documents/pythonPlayground/realPython/flasktaskr/env/lib/python2.7/site-packages/sqlalchemy/interfaces'
p589
sg12
g13
(g14
g15
NtRp590
(dp591
g18
I1
sg19
I0
sg20
I69
sg21
I0
sg22
I0
sg23
I47
sg24
I0
sbssg25
S'+\x0b\x0e8\xe1\xe0s\x94\x0e\xa7~W)\x97;\x1f'
p592
ssS'_Users_ygrinman_Documents_pythonPlayground_realPython_flasktaskr_env_lib_python2_7_site-packages_sqlalchemy_orm_strategy_options'
p593
(dp594
g6
(dp595
g8
S'_Users_ygrinman_Documents_pythonPlayground_realPython_flasktaskr_env_lib_python2_7_site-packages_sqlalchemy_orm_strategy_options.html'
p596
sg10
S'/Users/ygrinman/Documents/pythonPlayground/realPython/flasktaskr/env/lib/python2.7/site-packages/sqlalchemy/orm/strategy_options'
p597
sg12
g13
(g14
g15
NtRp598
(dp599
g18
I1
sg19
I0
sg20
I323
sg21
I0
sg22
I0
sg23
I238
sg24
I0
sbssg25
S"'\xb4\xb0N\xce\xe1\x9a9\x0f\x89\xfc]q\x8e\x07'"
p600
ssS'_Users_ygrinman_Documents_pythonPlayground_realPython_flasktaskr_env_lib_python2_7_site-packages_sqlalchemy_engine___init__'
p601
(dp602
g6
(dp603
g8
S'_Users_ygrinman_Documents_pythonPlayground_realPython_flasktaskr_env_lib_python2_7_site-packages_sqlalchemy_engine___init__.html'
p604
sg10
S'/Users/ygrinman/Documents/pythonPlayground/realPython/flasktaskr/env/lib/python2.7/site-packages/sqlalchemy/engine/__init__'
p605
sg12
g13
(g14
g15
NtRp606
(dp607
g18
I1
sg19
I0
sg20
I19
sg21
I0
sg22
I0
sg23
I5
sg24
I0
sbssg25
S'\x91\x12\x84\xef\xb8\xe0\xda\xc7\xce\x8c\xdeN\x8c\xb1\xbdN'
p608
ssS'_Users_ygrinman_Documents_pythonPlayground_realPython_flasktaskr_env_lib_python2_7_site-packages_sqlalchemy_event_legacy'
p609
(dp610
g6
(dp611
g8
S'_Users_ygrinman_Documents_pythonPlayground_realPython_flasktaskr_env_lib_python2_7_site-packages_sqlalchemy_event_legacy.html'
p612
sg10
S'/Users/ygrinman/Documents/pythonPlayground/realPython/flasktaskr/env/lib/python2.7/site-packages/sqlalchemy/event/legacy'
p613
sg12
g13
(g14
g15
NtRp614
(dp615
g18
I1
sg19
I0
sg20
I56
sg21
I0
sg22
I0
sg23
I18
sg24
I0
sbssg25
S'\xaa\x01[\xbb\xac\xbb\x94N\xd1Z\xc2\xe6\x0c\x05\xa4\xd8'
p616
ssS'_Users_ygrinman_Documents_pythonPlayground_realPython_flasktaskr_env_lib_python2_7_site-packages_sqlalchemy_event_registry'
p617
(dp618
g6
(dp619
g8
S'_Users_ygrinman_Documents_pythonPlayground_realPython_flasktaskr_env_lib_python2_7_site-packages_sqlalchemy_event_registry.html'
p620
sg10
S'/Users/ygrinman/Documents/pythonPlayground/realPython/flasktaskr/env/lib/python2.7/site-packages/sqlalchemy/event/registry'
p621
sg12
g13
(g14
g15
NtRp622
(dp623
g18
I1
sg19
I0
sg20
I130
sg21
I0
sg22
I0
sg23
I66
sg24
I0
sbssg25
S'[\xe1S7\x8d\xc2\xdd\xb7`\x9b\xe5T\xcaq\xd4\xdc'
p624
ssS'_Users_ygrinman_Documents_pythonPlayground_realPython_flasktaskr_env_lib_python2_7_site-packages_sqlalchemy_util_langhelpers'
p625
(dp626
g6
(dp627
g8
S'_Users_ygrinman_Documents_pythonPlayground_realPython_flasktaskr_env_lib_python2_7_site-packages_sqlalchemy_util_langhelpers.html'
p628
sg10
S'/Users/ygrinman/Documents/pythonPlayground/realPython/flasktaskr/env/lib/python2.7/site-packages/sqlalchemy/util/langhelpers'
p629
sg12
g13
(g14
g15
NtRp630
(dp631
g18
I1
sg19
I0
sg20
I629
sg21
I0
sg22
I0
sg23
I272
sg24
I0
sbssg25
S'\x12\xf1KD\xaa7\xaa\xf34E\xbf\x8d7\xb0\xeao'
p632
ssS'_Users_ygrinman_Documents_pythonPlayground_realPython_flasktaskr_env_lib_python2_7_site-packages_wtforms_fields___init__'
p633
(dp634
g6
(dp635
g8
S'_Users_ygrinman_Documents_pythonPlayground_realPython_flasktaskr_env_lib_python2_7_site-packages_wtforms_fields___init__.html'
p636
sg10
S'/Users/ygrinman/Documents/pythonPlayground/realPython/flasktaskr/env/lib/python2.7/site-packages/wtforms/fields/__init__'
p637
sg12
g13
(g14
g15
NtRp638
(dp639
g18
I1
sg19
I0
sg20
I3
sg21
I0
sg22
I0
sg23
I0
sg24
I0
sbssg25
S'\x12dE2A}Z\x0f\x89cm\xa4\xb6M\x15:'
p640
ssS'_Users_ygrinman_Documents_pythonPlayground_realPython_flasktaskr_env_lib_python2_7_site-packages_werkzeug_wsgi'
p641
(dp642
g6
(dp643
g8
S'_Users_ygrinman_Documents_pythonPlayground_realPython_flasktaskr_env_lib_python2_7_site-packages_werkzeug_wsgi.html'
p644
sg10
S'/Users/ygrinman/Documents/pythonPlayground/realPython/flasktaskr/env/lib/python2.7/site-packages/werkzeug/wsgi'
p645
sg12
g13
(g14
g15
NtRp646
(dp647
g18
I1
sg19
I0
sg20
I449
sg21
I0
sg22
I0
sg23
I294
sg24
I0
sbssg25
S"\x15\xfbgO\x87\x8c\x81A'P>\xf9\\\xde6`"
p648
ssS'_Users_ygrinman_Documents_pythonPlayground_realPython_flasktaskr_env_lib_python2_7_site-packages_sqlalchemy_orm___init__'
p649
(dp650
g6
(dp651
g8
S'_Users_ygrinman_Documents_pythonPlayground_realPython_flasktaskr_env_lib_python2_7_site-packages_sqlalchemy_orm___init__.html'
p652
sg10
S'/Users/ygrinman/Documents/pythonPlayground/realPython/flasktaskr/env/lib/python2.7/site-packages/sqlalchemy/orm/__init__'
p653
sg12
g13
(g14
g15
NtRp654
(dp655
g18
I1
sg19
I0
sg20
I78
sg21
I0
sg22
I0
sg23
I21
sg24
I0
sbssg25
S'\xb3hR\xf4\\A\xf9GRY\xfc&\xecD\xcfn'
p656
ssS'_Users_ygrinman_Documents_pythonPlayground_realPython_flasktaskr_env_lib_python2_7_site-packages_markupsafe___init__'
p657
(dp658
g6
(dp659
g8
S'_Users_ygrinman_Documents_pythonPlayground_realPython_flasktaskr_env_lib_python2_7_site-packages_markupsafe___init__.html'
p660
sg10
S'/Users/ygrinman/Documents/pythonPlayground/realPython/flasktaskr/env/lib/python2.7/site-packages/markupsafe/__init__'
p661
sg12
g13
(g14
g15
NtRp662
(dp663
g18
I1
sg19
I0
sg20
I155
sg21
I0
sg22
I0
sg23
I85
sg24
I0
sbssg25
S'\xea:\x15\xe9\xe7H\x96\xef\xf0\x1aI\xc6\x93k\xf7\xa5'
p664
ssS'_Users_ygrinman_Documents_pythonPlayground_realPython_flasktaskr_env_lib_python2_7_site-packages_sqlalchemy_event___init__'
p665
(dp666
g6
(dp667
g8
S'_Users_ygrinman_Documents_pythonPlayground_realPython_flasktaskr_env_lib_python2_7_site-packages_sqlalchemy_event___init__.html'
p668
sg10
S'/Users/ygrinman/Documents/pythonPlayground/realPython/flasktaskr/env/lib/python2.7/site-packages/sqlalchemy/event/__init__'
p669
sg12
g13
(g14
g15
NtRp670
(dp671
g18
I1
sg19
I0
sg20
I4
sg21
I0
sg22
I0
sg23
I0
sg24
I0
sbssg25
S'\x06\x04<)\x7f\xc4\x8a\x03\x92\xe9\x8a\xa6\xc6QA\x95'
p672
ssS'_Users_ygrinman_Documents_pythonPlayground_realPython_flasktaskr_env_lib_python2_7_site-packages_sqlalchemy_orm_query'
p673
(dp674
g6
(dp675
g8
S'_Users_ygrinman_Documents_pythonPlayground_realPython_flasktaskr_env_lib_python2_7_site-packages_sqlalchemy_orm_query.html'
p676
sg10
S'/Users/ygrinman/Documents/pythonPlayground/realPython/flasktaskr/env/lib/python2.7/site-packages/sqlalchemy/orm/query'
p677
sg12
g13
(g14
g15
NtRp678
(dp679
g18
I1
sg19
I0
sg20
I1089
sg21
I0
sg22
I0
sg23
I654
sg24
I0
sbssg25
S'I\xa0\x9e\xa4\xa9\xb1v\xcb\xe2\xee\xf6\xbaH\ri\xad'
p680
ssS'_Users_ygrinman_Documents_pythonPlayground_realPython_flasktaskr_env_lib_python2_7_site-packages_werkzeug_wrappers'
p681
(dp682
g6
(dp683
g8
S'_Users_ygrinman_Documents_pythonPlayground_realPython_flasktaskr_env_lib_python2_7_site-packages_werkzeug_wrappers.html'
p684
sg10
S'/Users/ygrinman/Documents/pythonPlayground/realPython/flasktaskr/env/lib/python2.7/site-packages/werkzeug/wrappers'
p685
sg12
g13
(g14
g15
NtRp686
(dp687
g18
I1
sg19
I0
sg20
I567
sg21
I0
sg22
I0
sg23
I241
sg24
I0
sbssg25
S'`\xd7\xf1>$L\xa6\xaa\xcbXt\x0f\xec>\xdd\x91'
p688
ssS'_Users_ygrinman_Documents_pythonPlayground_realPython_flasktaskr_env_lib_python2_7_site-packages_sqlalchemy_engine_strategies'
p689
(dp690
g6
(dp691
g8
S'_Users_ygrinman_Documents_pythonPlayground_realPython_flasktaskr_env_lib_python2_7_site-packages_sqlalchemy_engine_strategies.html'
p692
sg10
S'/Users/ygrinman/Documents/pythonPlayground/realPython/flasktaskr/env/lib/python2.7/site-packages/sqlalchemy/engine/strategies'
p693
sg12
g13
(g14
g15
NtRp694
(dp695
g18
I1
sg19
I0
sg20
I130
sg21
I0
sg22
I0
sg23
I46
sg24
I0
sbssg25
S'\x8eal\xb8f\xf4l\xc3X\x85\x04\xb7kjh\x94'
p696
ssS'_Users_ygrinman_Documents_pythonPlayground_realPython_flasktaskr_env_lib_python2_7_site-packages_werkzeug_urls'
p697
(dp698
g6
(dp699
g8
S'_Users_ygrinman_Documents_pythonPlayground_realPython_flasktaskr_env_lib_python2_7_site-packages_werkzeug_urls.html'
p700
sg10
S'/Users/ygrinman/Documents/pythonPlayground/realPython/flasktaskr/env/lib/python2.7/site-packages/werkzeug/urls'
p701
sg12
g13
(g14
g15
NtRp702
(dp703
g18
I1
sg19
I0
sg20
I379
sg21
I0
sg22
I0
sg23
I126
sg24
I0
sbssg25
S'\xd2\x9a\xbf\xa0g\xa3G\xcfK\x8f5\r\xb4< \xcc'
p704
ssS'_Users_ygrinman_Documents_pythonPlayground_realPython_flasktaskr_env_lib_python2_7_site-packages_sqlalchemy_orm_session'
p705
(dp706
g6
(dp707
g8
S'_Users_ygrinman_Documents_pythonPlayground_realPython_flasktaskr_env_lib_python2_7_site-packages_sqlalchemy_orm_session.html'
p708
sg10
S'/Users/ygrinman/Documents/pythonPlayground/realPython/flasktaskr/env/lib/python2.7/site-packages/sqlalchemy/orm/session'
p709
sg12
g13
(g14
g15
NtRp710
(dp711
g18
I1
sg19
I0
sg20
I766
sg21
I0
sg22
I0
sg23
I407
sg24
I0
sbssg25
S'\xe0X\xd7.\x99@b\xd9<f\x82E*9|\x0e'
p712
ssS'_Users_ygrinman_Documents_pythonPlayground_realPython_flasktaskr_env_lib_python2_7_site-packages_wtforms_ext___init__'
p713
(dp714
g6
(dp715
g8
S'_Users_ygrinman_Documents_pythonPlayground_realPython_flasktaskr_env_lib_python2_7_site-packages_wtforms_ext___init__.html'
p716
sg10
S'/Users/ygrinman/Documents/pythonPlayground/realPython/flasktaskr/env/lib/python2.7/site-packages/wtforms/ext/__init__'
p717
sg12
g13
(g14
g15
NtRp718
(dp719
g18
I1
sg19
I0
sg20
I0
sg21
I0
sg22
I0
sg23
I0
sg24
I0
sbssg25
S'\xca\xf5\x9f\x7f\x88\xdfa\x831|T\x1d\xbc}\xa5v'
p720
ssS'_Users_ygrinman_Documents_pythonPlayground_realPython_flasktaskr_env_lib_python2_7_site-packages_werkzeug_exceptions'
p721
(dp722
g6
(dp723
g8
S'_Users_ygrinman_Documents_pythonPlayground_realPython_flasktaskr_env_lib_python2_7_site-packages_werkzeug_exceptions.html'
p724
sg10
S'/Users/ygrinman/Documents/pythonPlayground/realPython/flasktaskr/env/lib/python2.7/site-packages/werkzeug/exceptions'
p725
sg12
g13
(g14
g15
NtRp726
(dp727
g18
I1
sg19
I0
sg20
I159
sg21
I2
sg22
I0
sg23
I27
sg24
I0
sbssg25
S"\xa2yF\xb3\xc4\xbe\xb3\x1aQ\x9ct'C\xcf\x1al"
p728
ssS'_Users_ygrinman_Documents_pythonPlayground_realPython_flasktaskr_env_lib_python2_7_site-packages_sqlalchemy_sql_functions'
p729
(dp730
g6
(dp731
g8
S'_Users_ygrinman_Documents_pythonPlayground_realPython_flasktaskr_env_lib_python2_7_site-packages_sqlalchemy_sql_functions.html'
p732
sg10
S'/Users/ygrinman/Documents/pythonPlayground/realPython/flasktaskr/env/lib/python2.7/site-packages/sqlalchemy/sql/functions'
p733
sg12
g13
(g14
g15
NtRp734
(dp735
g18
I1
sg19
I0
sg20
I170
sg21
I0
sg22
I0
sg23
I69
sg24
I0
sbssg25
S'\x18\x98*OX\xbcy.\xc0\x96F\xaaqc\xb6\x0c'
p736
ssS'_Users_ygrinman_Documents_pythonPlayground_realPython_flasktaskr_env_lib_python2_7_site-packages_sqlalchemy_exc'
p737
(dp738
g6
(dp739
g8
S'_Users_ygrinman_Documents_pythonPlayground_realPython_flasktaskr_env_lib_python2_7_site-packages_sqlalchemy_exc.html'
p740
sg10
S'/Users/ygrinman/Documents/pythonPlayground/realPython/flasktaskr/env/lib/python2.7/site-packages/sqlalchemy/exc'
p741
sg12
g13
(g14
g15
NtRp742
(dp743
g18
I1
sg19
I0
sg20
I104
sg21
I0
sg22
I0
sg23
I48
sg24
I0
sbssg25
S'\xc5\x97+\xe9\xbe\xa0\xe0o\xa8\xc9c\x90\x98z\xe8\xe4'
p744
ssS'_Users_ygrinman_Documents_pythonPlayground_realPython_flasktaskr_env_lib_python2_7_site-packages_werkzeug_utils'
p745
(dp746
g6
(dp747
g8
S'_Users_ygrinman_Documents_pythonPlayground_realPython_flasktaskr_env_lib_python2_7_site-packages_werkzeug_utils.html'
p748
sg10
S'/Users/ygrinman/Documents/pythonPlayground/realPython/flasktaskr/env/lib/python2.7/site-packages/werkzeug/utils'
p749
sg12
g13
(g14
g15
NtRp750
(dp751
g18
I1
sg19
I0
sg20
I240
sg21
I0
sg22
I0
sg23
I149
sg24
I0
sbssg25
S'\xde3\xa0\xe4]\xe2\xc6\xc1\x04\nw\xffQ\xfb\x88|'
p752
ssS'_Users_ygrinman_Documents_pythonPlayground_realPython_flasktaskr_env_lib_python2_7_site-packages_flask_wtf_recaptcha_validators'
p753
(dp754
g6
(dp755
g8
S'_Users_ygrinman_Documents_pythonPlayground_realPython_flasktaskr_env_lib_python2_7_site-packages_flask_wtf_recaptcha_validators.html'
p756
sg10
S'/Users/ygrinman/Documents/pythonPlayground/realPython/flasktaskr/env/lib/python2.7/site-packages/flask_wtf/recaptcha/validators'
p757
sg12
g13
(g14
g15
NtRp758
(dp759
g18
I1
sg19
I0
sg20
I45
sg21
I0
sg22
I0
sg23
I32
sg24
I0
sbssg25
S'%[\xa4b\xa8\xeb}o\xf5M0\xd8\xd3\xea\xda\xf7'
p760
ssS'_Users_ygrinman_Documents_pythonPlayground_realPython_flasktaskr_env_lib_python2_7_site-packages_jinja2_parser'
p761
(dp762
g6
(dp763
g8
S'_Users_ygrinman_Documents_pythonPlayground_realPython_flasktaskr_env_lib_python2_7_site-packages_jinja2_parser.html'
p764
sg10
S'/Users/ygrinman/Documents/pythonPlayground/realPython/flasktaskr/env/lib/python2.7/site-packages/jinja2/parser'
p765
sg12
g13
(g14
g15
NtRp766
(dp767
g18
I1
sg19
I0
sg20
I646
sg21
I0
sg22
I0
sg23
I331
sg24
I0
sbssg25
S'\xae]|\x99\xcd\x88\x93\x01 o\x03B\xf2\x8a\x17U'
p768
ssS'_Users_ygrinman_Documents_pythonPlayground_realPython_flasktaskr_env_lib_python2_7_site-packages_werkzeug_local'
p769
(dp770
g6
(dp771
g8
S'_Users_ygrinman_Documents_pythonPlayground_realPython_flasktaskr_env_lib_python2_7_site-packages_werkzeug_local.html'
p772
sg10
S'/Users/ygrinman/Documents/pythonPlayground/realPython/flasktaskr/env/lib/python2.7/site-packages/werkzeug/local'
p773
sg12
g13
(g14
g15
NtRp774
(dp775
g18
I1
sg19
I0
sg20
I210
sg21
I0
sg22
I0
sg23
I64
sg24
I0
sbssg25
S'f\x8d\x10\x13&\xdd\x05\x9f\xc0\x90\xfb\xa5\xe2\x9c\xb2K'
p776
ssS'_Users_ygrinman_Documents_pythonPlayground_realPython_flasktaskr_env_lib_python2_7_site-packages_werkzeug__compat'
p777
(dp778
g6
(dp779
g8
S'_Users_ygrinman_Documents_pythonPlayground_realPython_flasktaskr_env_lib_python2_7_site-packages_werkzeug__compat.html'
p780
sg10
S'/Users/ygrinman/Documents/pythonPlayground/realPython/flasktaskr/env/lib/python2.7/site-packages/werkzeug/_compat'
p781
sg12
g13
(g14
g15
NtRp782
(dp783
g18
I1
sg19
I0
sg20
I146
sg21
I0
sg22
I0
sg23
I70
sg24
I0
sbssg25
S'\xaa\x032\xb9u<t\xa8:$Pgq\xd6\t\x06'
p784
ssS'_Users_ygrinman_Documents_pythonPlayground_realPython_flasktaskr_env_lib_python2_7_site-packages_flask_testing'
p785
(dp786
g6
(dp787
g8
S'_Users_ygrinman_Documents_pythonPlayground_realPython_flasktaskr_env_lib_python2_7_site-packages_flask_testing.html'
p788
sg10
S'/Users/ygrinman/Documents/pythonPlayground/realPython/flasktaskr/env/lib/python2.7/site-packages/flask/testing'
p789
sg12
g13
(g14
g15
NtRp790
(dp791
g18
I1
sg19
I0
sg20
I58
sg21
I0
sg22
I0
sg23
I31
sg24
I0
sbssg25
S'\xd9\xf3_\xa9\x18t\xef\xa2\xc5q@\xd3\xfe@\xd4c'
p792
ssS'_Users_ygrinman_Documents_pythonPlayground_realPython_flasktaskr_env_lib_python2_7_site-packages_sqlalchemy_ext_declarative_clsregistry'
p793
(dp794
g6
(dp795
g8
S'_Users_ygrinman_Documents_pythonPlayground_realPython_flasktaskr_env_lib_python2_7_site-packages_sqlalchemy_ext_declarative_clsregistry.html'
p796
sg10
S'/Users/ygrinman/Documents/pythonPlayground/realPython/flasktaskr/env/lib/python2.7/site-packages/sqlalchemy/ext/declarative/clsregistry'
p797
sg12
g13
(g14
g15
NtRp798
(dp799
g18
I1
sg19
I0
sg20
I179
sg21
I0
sg22
I0
sg23
I76
sg24
I0
sbssg25
S'\xbf*\xf7\x93\xaf\xb2\x9c\x04r\xd9\x8cx[}\xeb\x90'
p800
ssS'_Users_ygrinman_Documents_pythonPlayground_realPython_flasktaskr_env_lib_python2_7_site-packages_sqlalchemy_sql_compiler'
p801
(dp802
g6
(dp803
g8
S'_Users_ygrinman_Documents_pythonPlayground_realPython_flasktaskr_env_lib_python2_7_site-packages_sqlalchemy_sql_compiler.html'
p804
sg10
S'/Users/ygrinman/Documents/pythonPlayground/realPython/flasktaskr/env/lib/python2.7/site-packages/sqlalchemy/sql/compiler'
p805
sg12
g13
(g14
g15
NtRp806
(dp807
g18
I1
sg19
I0
sg20
I1371
sg21
I0
sg22
I0
sg23
I696
sg24
I0
sbssg25
S'\x1b\xa2\xda\x0e\xa7\xd9\xda\xfe&-,\xaa\x97{\xdda'
p808
ssS'_Users_ygrinman_Documents_pythonPlayground_realPython_flasktaskr_env_lib_python2_7_site-packages_sqlalchemy_engine_interfaces'
p809
(dp810
g6
(dp811
g8
S'_Users_ygrinman_Documents_pythonPlayground_realPython_flasktaskr_env_lib_python2_7_site-packages_sqlalchemy_engine_interfaces.html'
p812
sg10
S'/Users/ygrinman/Documents/pythonPlayground/realPython/flasktaskr/env/lib/python2.7/site-packages/sqlalchemy/engine/interfaces'
p813
sg12
g13
(g14
g15
NtRp814
(dp815
g18
I1
sg19
I0
sg20
I131
sg21
I0
sg22
I0
sg23
I54
sg24
I0
sbssg25
S'[\xb7~\x06\xc6c\xcegH\xd9p\xcc\x95N\xd9l'
p816
ssS'_Users_ygrinman_Documents_pythonPlayground_realPython_flasktaskr_env_lib_python2_7_site-packages_jinja2_tests'
p817
(dp818
g6
(dp819
g8
S'_Users_ygrinman_Documents_pythonPlayground_realPython_flasktaskr_env_lib_python2_7_site-packages_jinja2_tests.html'
p820
sg10
S'/Users/ygrinman/Documents/pythonPlayground/realPython/flasktaskr/env/lib/python2.7/site-packages/jinja2/tests'
p821
sg12
g13
(g14
g15
NtRp822
(dp823
g18
I1
sg19
I0
sg20
I47
sg21
I0
sg22
I0
sg23
I24
sg24
I0
sbssg25
S'\xb1[}x+R\x19\xd1\xe4\xc4\xf3\xcb"5\xe8\xfd'
p824
ssS'_Users_ygrinman_Documents_pythonPlayground_realPython_flasktaskr_env_lib_python2_7_site-packages_sqlalchemy_orm_evaluator'
p825
(dp826
g6
(dp827
g8
S'_Users_ygrinman_Documents_pythonPlayground_realPython_flasktaskr_env_lib_python2_7_site-packages_sqlalchemy_orm_evaluator.html'
p828
sg10
S'/Users/ygrinman/Documents/pythonPlayground/realPython/flasktaskr/env/lib/python2.7/site-packages/sqlalchemy/orm/evaluator'
p829
sg12
g13
(g14
g15
NtRp830
(dp831
g18
I1
sg19
I0
sg20
I87
sg21
I0
sg22
I0
sg23
I49
sg24
I0
sbssg25
S'\xfc\xcd\x08\xfeze\x9d\x1f]\xea\xd7?\x058\xa3b'
p832
ssS'_Users_ygrinman_Documents_pythonPlayground_realPython_flasktaskr_env_lib_python2_7_site-packages_flask_signals'
p833
(dp834
g6
(dp835
g8
S'_Users_ygrinman_Documents_pythonPlayground_realPython_flasktaskr_env_lib_python2_7_site-packages_flask_signals.html'
p836
sg10
S'/Users/ygrinman/Documents/pythonPlayground/realPython/flasktaskr/env/lib/python2.7/site-packages/flask/signals'
p837
sg12
g13
(g14
g15
NtRp838
(dp839
g18
I1
sg19
I0
sg20
I28
sg21
I0
sg22
I0
sg23
I2
sg24
I0
sbssg25
S'\x00\xe95\xfbqr\xe7\xe9k\xed\xaaT\xc5\xe1\xa5L'
p840
ssS'_Users_ygrinman_Documents_pythonPlayground_realPython_flasktaskr_env_lib_python2_7_site-packages_sqlalchemy_sql_visitors'
p841
(dp842
g6
(dp843
g8
S'_Users_ygrinman_Documents_pythonPlayground_realPython_flasktaskr_env_lib_python2_7_site-packages_sqlalchemy_sql_visitors.html'
p844
sg10
S'/Users/ygrinman/Documents/pythonPlayground/realPython/flasktaskr/env/lib/python2.7/site-packages/sqlalchemy/sql/visitors'
p845
sg12
g13
(g14
g15
NtRp846
(dp847
g18
I1
sg19
I0
sg20
I132
sg21
I0
sg22
I0
sg23
I34
sg24
I0
sbssg25
S'\xc3\xa6\xfc\x88\xf8\xba%\xc4\xfd,\xf7mM\x98\xa0^'
p848
ssS'_Users_ygrinman_Documents_pythonPlayground_realPython_flasktaskr_env_lib_python2_7_site-packages_sqlalchemy_util__collections'
p849
(dp850
g6
(dp851
g8
S'_Users_ygrinman_Documents_pythonPlayground_realPython_flasktaskr_env_lib_python2_7_site-packages_sqlalchemy_util__collections.html'
p852
sg10
S'/Users/ygrinman/Documents/pythonPlayground/realPython/flasktaskr/env/lib/python2.7/site-packages/sqlalchemy/util/_collections'
p853
sg12
g13
(g14
g15
NtRp854
(dp855
g18
I1
sg19
I0
sg20
I550
sg21
I0
sg22
I0
sg23
I262
sg24
I0
sbssg25
S'\xc6\xfc;/\x8b\x85\x01\xf8N\xb5pR9.\x01G'
p856
ssS'_Users_ygrinman_Documents_pythonPlayground_realPython_flasktaskr_env_lib_python2_7_site-packages_sqlalchemy_ext_declarative_base'
p857
(dp858
g6
(dp859
g8
S'_Users_ygrinman_Documents_pythonPlayground_realPython_flasktaskr_env_lib_python2_7_site-packages_sqlalchemy_ext_declarative_base.html'
p860
sg10
S'/Users/ygrinman/Documents/pythonPlayground/realPython/flasktaskr/env/lib/python2.7/site-packages/sqlalchemy/ext/declarative/base'
p861
sg12
g13
(g14
g15
NtRp862
(dp863
g18
I1
sg19
I0
sg20
I278
sg21
I0
sg22
I0
sg23
I127
sg24
I0
sbssg25
S'\x9a\xd5\xcfyB\xdd4\xbf\x1b\r\x8d7L\x81N\xae'
p864
ssS'_Users_ygrinman_Documents_pythonPlayground_realPython_flasktaskr_env_lib_python2_7_site-packages_werkzeug___init__'
p865
(dp866
g6
(dp867
g8
S'_Users_ygrinman_Documents_pythonPlayground_realPython_flasktaskr_env_lib_python2_7_site-packages_werkzeug___init__.html'
p868
sg10
S'/Users/ygrinman/Documents/pythonPlayground/realPython/flasktaskr/env/lib/python2.7/site-packages/werkzeug/__init__'
p869
sg12
g13
(g14
g15
NtRp870
(dp871
g18
I1
sg19
I0
sg20
I29
sg21
I0
sg22
I0
sg23
I4
sg24
I0
sbssg25
S'\xf2]\xce9\xfcC\x89\xa0\x92R\\%\x04\xfbi\x1f'
p872
ssS'_Users_ygrinman_Documents_pythonPlayground_realPython_flasktaskr_env_lib_python2_7_site-packages_sqlalchemy_schema'
p873
(dp874
g6
(dp875
g8
S'_Users_ygrinman_Documents_pythonPlayground_realPython_flasktaskr_env_lib_python2_7_site-packages_sqlalchemy_schema.html'
p876
sg10
S'/Users/ygrinman/Documents/pythonPlayground/realPython/flasktaskr/env/lib/python2.7/site-packages/sqlalchemy/schema'
p877
sg12
g13
(g14
g15
NtRp878
(dp879
g18
I1
sg19
I0
sg20
I5
sg21
I0
sg22
I0
sg23
I0
sg24
I0
sbssg25
S'1\x8d7\xa6\xc8\xfb]\xa2\x0f\x98\x7f/\xa3\xf0\xc1E'
p880
ssS'_Users_ygrinman_Documents_pythonPlayground_realPython_flasktaskr_env_lib_python2_7_site-packages_sqlalchemy_util_topological'
p881
(dp882
g6
(dp883
g8
S'_Users_ygrinman_Documents_pythonPlayground_realPython_flasktaskr_env_lib_python2_7_site-packages_sqlalchemy_util_topological.html'
p884
sg10
S'/Users/ygrinman/Documents/pythonPlayground/realPython/flasktaskr/env/lib/python2.7/site-packages/sqlalchemy/util/topological'
p885
sg12
g13
(g14
g15
NtRp886
(dp887
g18
I1
sg19
I0
sg20
I46
sg21
I0
sg22
I0
sg23
I8
sg24
I0
sbssg25
S'\x7f\x0c\xfd_\x97\xc8\xa4\xa9\x10\x8e)\x9cm)\x8a`'
p888
ssS'_Users_ygrinman_Documents_pythonPlayground_realPython_flasktaskr_env_lib_python2_7_site-packages_sqlalchemy_orm_interfaces'
p889
(dp890
g6
(dp891
g8
S'_Users_ygrinman_Documents_pythonPlayground_realPython_flasktaskr_env_lib_python2_7_site-packages_sqlalchemy_orm_interfaces.html'
p892
sg10
S'/Users/ygrinman/Documents/pythonPlayground/realPython/flasktaskr/env/lib/python2.7/site-packages/sqlalchemy/orm/interfaces'
p893
sg12
g13
(g14
g15
NtRp894
(dp895
g18
I1
sg19
I0
sg20
I149
sg21
I0
sg22
I0
sg23
I33
sg24
I0
sbssg25
S'\xbc\xb0\xf0\xa5\xba\x8c\x83\x0e|$\x82\x0e\xf3:66'
p896
ssS'_Users_ygrinman_Documents_pythonPlayground_realPython_flasktaskr_env_lib_python2_7_site-packages_wtforms_ext_csrf_form'
p897
(dp898
g6
(dp899
g8
S'_Users_ygrinman_Documents_pythonPlayground_realPython_flasktaskr_env_lib_python2_7_site-packages_wtforms_ext_csrf_form.html'
p900
sg10
S'/Users/ygrinman/Documents/pythonPlayground/realPython/flasktaskr/env/lib/python2.7/site-packages/wtforms/ext/csrf/form'
p901
sg12
g13
(g14
g15
NtRp902
(dp903
g18
I1
sg19
I0
sg20
I18
sg21
I0
sg22
I0
sg23
I6
sg24
I0
sbssg25
S'\x97g\xdd\\_\xc8\xc1\xc2j\xca\xc74$\xcd2\xf4'
p904
ssS'_Users_ygrinman_Documents_pythonPlayground_realPython_flasktaskr_env_lib_python2_7_site-packages_jinja2_visitor'
p905
(dp906
g6
(dp907
g8
S'_Users_ygrinman_Documents_pythonPlayground_realPython_flasktaskr_env_lib_python2_7_site-packages_jinja2_visitor.html'
p908
sg10
S'/Users/ygrinman/Documents/pythonPlayground/realPython/flasktaskr/env/lib/python2.7/site-packages/jinja2/visitor'
p909
sg12
g13
(g14
g15
NtRp910
(dp911
g18
I1
sg19
I0
sg20
I40
sg21
I0
sg22
I0
sg23
I8
sg24
I0
sbssg25
S'+&9m\xe7\x0f\xabq\x87\xaf;EL\x84#i'
p912
ssS'_Users_ygrinman_Documents_pythonPlayground_realPython_flasktaskr_env_lib_python2_7_site-packages_sqlalchemy_engine_url'
p913
(dp914
g6
(dp915
g8
S'_Users_ygrinman_Documents_pythonPlayground_realPython_flasktaskr_env_lib_python2_7_site-packages_sqlalchemy_engine_url.html'
p916
sg10
S'/Users/ygrinman/Documents/pythonPlayground/realPython/flasktaskr/env/lib/python2.7/site-packages/sqlalchemy/engine/url'
p917
sg12
g13
(g14
g15
NtRp918
(dp919
g18
I1
sg19
I0
sg20
I110
sg21
I0
sg22
I0
sg23
I56
sg24
I0
sbssg25
S'\xd0$\x01\x0c=\xcdR\xa9l\xd1\x04\xa8\xf2\xe8i\x11'
p920
ssS'_Users_ygrinman_Documents_pythonPlayground_realPython_flasktaskr_env_lib_python2_7_site-packages_sqlalchemy_ext_declarative___init__'
p921
(dp922
g6
(dp923
g8
S'_Users_ygrinman_Documents_pythonPlayground_realPython_flasktaskr_env_lib_python2_7_site-packages_sqlalchemy_ext_declarative___init__.html'
p924
sg10
S'/Users/ygrinman/Documents/pythonPlayground/realPython/flasktaskr/env/lib/python2.7/site-packages/sqlalchemy/ext/declarative/__init__'
p925
sg12
g13
(g14
g15
NtRp926
(dp927
g18
I1
sg19
I0
sg20
I3
sg21
I0
sg22
I0
sg23
I0
sg24
I0
sbssg25
S'm\xd18\xcc\x83j\x13\x98\x9cS\x01\x00\x07)\xa8/'
p928
ssS'_Users_ygrinman_Documents_pythonPlayground_realPython_flasktaskr_env_lib_python2_7_site-packages_jinja2_utils'
p929
(dp930
g6
(dp931
g8
S'_Users_ygrinman_Documents_pythonPlayground_realPython_flasktaskr_env_lib_python2_7_site-packages_jinja2_utils.html'
p932
sg10
S'/Users/ygrinman/Documents/pythonPlayground/realPython/flasktaskr/env/lib/python2.7/site-packages/jinja2/utils'
p933
sg12
g13
(g14
g15
NtRp934
(dp935
g18
I1
sg19
I0
sg20
I263
sg21
I0
sg22
I0
sg23
I154
sg24
I0
sbssg25
S"\xcd$\x12\x91s\xe7\xbf\xb8'_w\x87;\xedQ2"
p936
ssS'_Users_ygrinman_Documents_pythonPlayground_realPython_flasktaskr_env_lib_python2_7_site-packages_flask__compat'
p937
(dp938
g6
(dp939
g8
S'_Users_ygrinman_Documents_pythonPlayground_realPython_flasktaskr_env_lib_python2_7_site-packages_flask__compat.html'
p940
sg10
S'/Users/ygrinman/Documents/pythonPlayground/realPython/flasktaskr/env/lib/python2.7/site-packages/flask/_compat'
p941
sg12
g13
(g14
g15
NtRp942
(dp943
g18
I1
sg19
I0
sg20
I38
sg21
I0
sg22
I0
sg23
I20
sg24
I0
sbssg25
S's\xcd\x8a\xd4\xc2\xb9\x888\x0c\x97\xf4\x02\xc7\xcf\xf3\xeb'
p944
ssS'_Users_ygrinman_Documents_pythonPlayground_realPython_flasktaskr_env_lib_python2_7_site-packages_wtforms_fields_core'
p945
(dp946
g6
(dp947
g8
S'_Users_ygrinman_Documents_pythonPlayground_realPython_flasktaskr_env_lib_python2_7_site-packages_wtforms_fields_core.html'
p948
sg10
S'/Users/ygrinman/Documents/pythonPlayground/realPython/flasktaskr/env/lib/python2.7/site-packages/wtforms/fields/core'
p949
sg12
g13
(g14
g15
NtRp950
(dp951
g18
I1
sg19
I0
sg20
I484
sg21
I0
sg22
I0
sg23
I246
sg24
I0
sbssg25
S'\xb1dW&\xaf\x11\xder*\x85N\xb5\xb6\xa8\x7fe'
p952
ssS'_Users_ygrinman_Documents_pythonPlayground_realPython_flasktaskr_env_lib_python2_7_site-packages_sqlalchemy_log'
p953
(dp954
g6
(dp955
g8
S'_Users_ygrinman_Documents_pythonPlayground_realPython_flasktaskr_env_lib_python2_7_site-packages_sqlalchemy_log.html'
p956
sg10
S'/Users/ygrinman/Documents/pythonPlayground/realPython/flasktaskr/env/lib/python2.7/site-packages/sqlalchemy/log'
p957
sg12
g13
(g14
g15
NtRp958
(dp959
g18
I1
sg19
I0
sg20
I79
sg21
I0
sg22
I0
sg23
I33
sg24
I0
sbssg25
S'\xce\xc5p\x9c\x1c_\x80#\x9d,\x86\x8a\x0c\xd7\x99d'
p960
ssS'_Users_ygrinman_Documents_pythonPlayground_realPython_flasktaskr_env_lib_python2_7_site-packages_sqlalchemy_event_base'
p961
(dp962
g6
(dp963
g8
S'_Users_ygrinman_Documents_pythonPlayground_realPython_flasktaskr_env_lib_python2_7_site-packages_sqlalchemy_event_base.html'
p964
sg10
S'/Users/ygrinman/Documents/pythonPlayground/realPython/flasktaskr/env/lib/python2.7/site-packages/sqlalchemy/event/base'
p965
sg12
g13
(g14
g15
NtRp966
(dp967
g18
I1
sg19
I0
sg20
I88
sg21
I0
sg22
I0
sg23
I20
sg24
I0
sbssg25
S'5W\xcb\xb6V\x9b\xcd\x8f1\xa8\xfe\xea\xf7\x93\xf4\\'
p968
ssS'_Users_ygrinman_Documents_pythonPlayground_realPython_flasktaskr_env_lib_python2_7_site-packages_sqlalchemy_engine_result'
p969
(dp970
g6
(dp971
g8
S'_Users_ygrinman_Documents_pythonPlayground_realPython_flasktaskr_env_lib_python2_7_site-packages_sqlalchemy_engine_result.html'
p972
sg10
S'/Users/ygrinman/Documents/pythonPlayground/realPython/flasktaskr/env/lib/python2.7/site-packages/sqlalchemy/engine/result'
p973
sg12
g13
(g14
g15
NtRp974
(dp975
g18
I1
sg19
I0
sg20
I446
sg21
I0
sg22
I0
sg23
I279
sg24
I0
sbssg25
S'Y\x80\xb2Xt\xe15\x90\x00F\xb7\xa0\xfb\xc7\xfe>'
p976
ssS'_Users_ygrinman_Documents_pythonPlayground_realPython_flasktaskr_env_lib_python2_7_site-packages_sqlalchemy_orm_relationships'
p977
(dp978
g6
(dp979
g8
S'_Users_ygrinman_Documents_pythonPlayground_realPython_flasktaskr_env_lib_python2_7_site-packages_sqlalchemy_orm_relationships.html'
p980
sg10
S'/Users/ygrinman/Documents/pythonPlayground/realPython/flasktaskr/env/lib/python2.7/site-packages/sqlalchemy/orm/relationships'
p981
sg12
g13
(g14
g15
NtRp982
(dp983
g18
I1
sg19
I0
sg20
I786
sg21
I0
sg22
I0
sg23
I371
sg24
I0
sbssg25
S')\xc9\x9di\x98\xf8n<}\xed\xc8"\xf63\xae\xbb'
p984
ssS'_Users_ygrinman_Documents_pythonPlayground_realPython_flasktaskr_env_lib_python2_7_site-packages_sqlalchemy_orm_strategies'
p985
(dp986
g6
(dp987
g8
S'_Users_ygrinman_Documents_pythonPlayground_realPython_flasktaskr_env_lib_python2_7_site-packages_sqlalchemy_orm_strategies.html'
p988
sg10
S'/Users/ygrinman/Documents/pythonPlayground/realPython/flasktaskr/env/lib/python2.7/site-packages/sqlalchemy/orm/strategies'
p989
sg12
g13
(g14
g15
NtRp990
(dp991
g18
I1
sg19
I0
sg20
I629
sg21
I0
sg22
I0
sg23
I444
sg24
I0
sbssg25
S'?M\xba\x89c\xcb-@\xab\x0e\xc9<i\xa8R\xe2'
p992
ssS'_Users_ygrinman_Documents_pythonPlayground_realPython_flasktaskr_env_lib_python2_7_site-packages_jinja2_loaders'
p993
(dp994
g6
(dp995
g8
S'_Users_ygrinman_Documents_pythonPlayground_realPython_flasktaskr_env_lib_python2_7_site-packages_jinja2_loaders.html'
p996
sg10
S'/Users/ygrinman/Documents/pythonPlayground/realPython/flasktaskr/env/lib/python2.7/site-packages/jinja2/loaders'
p997
sg12
g13
(g14
g15
NtRp998
(dp999
g18
I1
sg19
I0
sg20
I221
sg21
I0
sg22
I0
sg23
I136
sg24
I0
sbssg25
S'\x83&\xd8\xa0D\xd5\xfe\xbf\xb7@\xe28D\xf6\xc7]'
p1000
ssS'_Users_ygrinman_Documents_pythonPlayground_realPython_flasktaskr_env_lib_python2_7_site-packages_flask_module'
p1001
(dp1002
g6
(dp1003
g8
S'_Users_ygrinman_Documents_pythonPlayground_realPython_flasktaskr_env_lib_python2_7_site-packages_flask_module.html'
p1004
sg10
S'/Users/ygrinman/Documents/pythonPlayground/realPython/flasktaskr/env/lib/python2.7/site-packages/flask/module'
p1005
sg12
g13
(g14
g15
NtRp1006
(dp1007
g18
I1
sg19
I0
sg20
I13
sg21
I0
sg22
I0
sg23
I7
sg24
I0
sbssg25
S'\xf0\xdb\x0fZ4%l\x89\x9c]\xb9\xf7v\xe7@;'
p1008
ssS'_Users_ygrinman_Documents_pythonPlayground_realPython_flasktaskr_env_lib_python2_7_site-packages_sqlalchemy_orm_properties'
p1009
(dp1010
g6
(dp1011
g8
S'_Users_ygrinman_Documents_pythonPlayground_realPython_flasktaskr_env_lib_python2_7_site-packages_sqlalchemy_orm_properties.html'
p1012
sg10
S'/Users/ygrinman/Documents/pythonPlayground/realPython/flasktaskr/env/lib/python2.7/site-packages/sqlalchemy/orm/properties'
p1013
sg12
g13
(g14
g15
NtRp1014
(dp1015
g18
I1
sg19
I0
sg20
I81
sg21
I0
sg22
I0
sg23
I30
sg24
I0
sbssg25
S'\xe0.Y\xa2\xf9\x1b\xc8Zv\xd0\xe5\x92\x8c40\xe2'
p1016
ssS'_Users_ygrinman_Documents_pythonPlayground_realPython_flasktaskr_env_lib_python2_7_site-packages_sqlalchemy_orm_descriptor_props'
p1017
(dp1018
g6
(dp1019
g8
S'_Users_ygrinman_Documents_pythonPlayground_realPython_flasktaskr_env_lib_python2_7_site-packages_sqlalchemy_orm_descriptor_props.html'
p1020
sg10
S'/Users/ygrinman/Documents/pythonPlayground/realPython/flasktaskr/env/lib/python2.7/site-packages/sqlalchemy/orm/descriptor_props'
p1021
sg12
g13
(g14
g15
NtRp1022
(dp1023
g18
I1
sg19
I0
sg20
I242
sg21
I0
sg22
I0
sg23
I191
sg24
I0
sbssg25
S'\xfd\x91y\xdaW\xb4R\xb6\xe0\xab\x8f\xb7\x18\xde\xac\r'
p1024
ssS'_Users_ygrinman_Documents_pythonPlayground_realPython_flasktaskr_env_lib_python2_7_site-packages_flask___init__'
p1025
(dp1026
g6
(dp1027
g8
S'_Users_ygrinman_Documents_pythonPlayground_realPython_flasktaskr_env_lib_python2_7_site-packages_flask___init__.html'
p1028
sg10
S'/Users/ygrinman/Documents/pythonPlayground/realPython/flasktaskr/env/lib/python2.7/site-packages/flask/__init__'
p1029
sg12
g13
(g14
g15
NtRp1030
(dp1031
g18
I1
sg19
I0
sg20
I18
sg21
I0
sg22
I0
sg23
I0
sg24
I0
sbssg25
S'\xbap\xbb\x0bT{\x1b\xee\xb3R\xfde\x14\xac>O'
p1032
ssS'_Users_ygrinman_Documents_pythonPlayground_realPython_flasktaskr_env_lib_python2_7_site-packages_jinja2_exceptions'
p1033
(dp1034
g6
(dp1035
g8
S'_Users_ygrinman_Documents_pythonPlayground_realPython_flasktaskr_env_lib_python2_7_site-packages_jinja2_exceptions.html'
p1036
sg10
S'/Users/ygrinman/Documents/pythonPlayground/realPython/flasktaskr/env/lib/python2.7/site-packages/jinja2/exceptions'
p1037
sg12
g13
(g14
g15
NtRp1038
(dp1039
g18
I1
sg19
I0
sg20
I70
sg21
I0
sg22
I0
sg23
I47
sg24
I0
sbssg25
S'\xf3z\xf9\xb0i}\xb8\xf8a\x05\xda\n?\x1c\xfb\x1d'
p1040
ssS'_Users_ygrinman_Documents_pythonPlayground_realPython_flasktaskr_env_lib_python2_7_site-packages_flask_globals'
p1041
(dp1042
g6
(dp1043
g8
S'_Users_ygrinman_Documents_pythonPlayground_realPython_flasktaskr_env_lib_python2_7_site-packages_flask_globals.html'
p1044
sg10
S'/Users/ygrinman/Documents/pythonPlayground/realPython/flasktaskr/env/lib/python2.7/site-packages/flask/globals'
p1045
sg12
g13
(g14
g15
NtRp1046
(dp1047
g18
I1
sg19
I0
sg20
I24
sg21
I0
sg22
I0
sg23
I6
sg24
I0
sbssg25
S'\x91\x03\x82\xe3\xc1,$\x9d\xd3{\x81\xf4v]\xbe\x08'
p1048
ssS'_Users_ygrinman_Documents_pythonPlayground_realPython_flasktaskr_env_lib_python2_7_site-packages_flask_config'
p1049
(dp1050
g6
(dp1051
g8
S'_Users_ygrinman_Documents_pythonPlayground_realPython_flasktaskr_env_lib_python2_7_site-packages_flask_config.html'
p1052
sg10
S'/Users/ygrinman/Documents/pythonPlayground/realPython/flasktaskr/env/lib/python2.7/site-packages/flask/config'
p1053
sg12
g13
(g14
g15
NtRp1054
(dp1055
g18
I1
sg19
I0
sg20
I52
sg21
I0
sg22
I0
sg23
I21
sg24
I0
sbssg25
S'\xcc\x9bxG\xcdU\x94at\x14\x86\xa3\x82\xcd&\x1b'
p1056
ssS'_Users_ygrinman_Documents_pythonPlayground_realPython_flasktaskr_env_lib_python2_7_site-packages_sqlalchemy_sql_base'
p1057
(dp1058
g6
(dp1059
g8
S'_Users_ygrinman_Documents_pythonPlayground_realPython_flasktaskr_env_lib_python2_7_site-packages_sqlalchemy_sql_base.html'
p1060
sg10
S'/Users/ygrinman/Documents/pythonPlayground/realPython/flasktaskr/env/lib/python2.7/site-packages/sqlalchemy/sql/base'
p1061
sg12
g13
(g14
g15
NtRp1062
(dp1063
g18
I1
sg19
I0
sg20
I271
sg21
I0
sg22
I0
sg23
I138
sg24
I0
sbssg25
S'\t\x1c\x1f7\xf1_\x99tal\xb5h\x8b\xb2\x89\x0f'
p1064
ssS'_Users_ygrinman_Documents_pythonPlayground_realPython_flasktaskr_env_lib_python2_7_site-packages_werkzeug_routing'
p1065
(dp1066
g6
(dp1067
g8
S'_Users_ygrinman_Documents_pythonPlayground_realPython_flasktaskr_env_lib_python2_7_site-packages_werkzeug_routing.html'
p1068
sg10
S'/Users/ygrinman/Documents/pythonPlayground/realPython/flasktaskr/env/lib/python2.7/site-packages/werkzeug/routing'
p1069
sg12
g13
(g14
g15
NtRp1070
(dp1071
g18
I1
sg19
I0
sg20
I580
sg21
I0
sg22
I0
sg23
I227
sg24
I0
sbssg25
S'\x10\xe9\x95\x93\x00\xb9\x13@\x9f\x9dl\x97\xb6 tm'
p1072
ssS'_Users_ygrinman_Documents_pythonPlayground_realPython_flasktaskr_env_lib_python2_7_site-packages_sqlalchemy_orm_mapper'
p1073
(dp1074
g6
(dp1075
g8
S'_Users_ygrinman_Documents_pythonPlayground_realPython_flasktaskr_env_lib_python2_7_site-packages_sqlalchemy_orm_mapper.html'
p1076
sg10
S'/Users/ygrinman/Documents/pythonPlayground/realPython/flasktaskr/env/lib/python2.7/site-packages/sqlalchemy/orm/mapper'
p1077
sg12
g13
(g14
g15
NtRp1078
(dp1079
g18
I1
sg19
I0
sg20
I895
sg21
I0
sg22
I0
sg23
I425
sg24
I0
sbssg25
S'/\xc33\x85Z\xca\xd9\x11\x8bc\x15s:\xdaX\x89'
p1080
ssS'_Users_ygrinman_Documents_pythonPlayground_realPython_flasktaskr_env_lib_python2_7_site-packages_jinja2_ext'
p1081
(dp1082
g6
(dp1083
g8
S'_Users_ygrinman_Documents_pythonPlayground_realPython_flasktaskr_env_lib_python2_7_site-packages_jinja2_ext.html'
p1084
sg10
S'/Users/ygrinman/Documents/pythonPlayground/realPython/flasktaskr/env/lib/python2.7/site-packages/jinja2/ext'
p1085
sg12
g13
(g14
g15
NtRp1086
(dp1087
g18
I1
sg19
I0
sg20
I305
sg21
I0
sg22
I0
sg23
I241
sg24
I0
sbssg25
S'\xf2\xe7\xbc,\x81\xdb\xc6\xee\x8f\xd3a\x1eGu\x19\x12'
p1088
ssS'_Users_ygrinman_Documents_pythonPlayground_realPython_flasktaskr_env_lib_python2_7_site-packages_sqlalchemy_pool'
p1089
(dp1090
g6
(dp1091
g8
S'_Users_ygrinman_Documents_pythonPlayground_realPython_flasktaskr_env_lib_python2_7_site-packages_sqlalchemy_pool.html'
p1092
sg10
S'/Users/ygrinman/Documents/pythonPlayground/realPython/flasktaskr/env/lib/python2.7/site-packages/sqlalchemy/pool'
p1093
sg12
g13
(g14
g15
NtRp1094
(dp1095
g18
I1
sg19
I0
sg20
I506
sg21
I0
sg22
I0
sg23
I292
sg24
I0
sbssg25
S'\xc5\xda\xcc\xe8WQ]\xbf\xae\xa1\xa1\xbe(\xc3)\x18'
p1096
ssS'_Users_ygrinman_Documents_pythonPlayground_realPython_flasktaskr_env_lib_python2_7_site-packages_sqlalchemy_orm_exc'
p1097
(dp1098
g6
(dp1099
g8
S'_Users_ygrinman_Documents_pythonPlayground_realPython_flasktaskr_env_lib_python2_7_site-packages_sqlalchemy_orm_exc.html'
p1100
sg10
S'/Users/ygrinman/Documents/pythonPlayground/realPython/flasktaskr/env/lib/python2.7/site-packages/sqlalchemy/orm/exc'
p1101
sg12
g13
(g14
g15
NtRp1102
(dp1103
g18
I1
sg19
I0
sg20
I60
sg21
I0
sg22
I0
sg23
I35
sg24
I0
sbssg25
S'z\xfb\x01\x16F{\x8e\xf5\xb9X\xa2\xb2;\xb4)\x1c'
p1104
ssS'_Users_ygrinman_Documents_pythonPlayground_realPython_flasktaskr_env_lib_python2_7_site-packages_wtforms_widgets_core'
p1105
(dp1106
g6
(dp1107
g8
S'_Users_ygrinman_Documents_pythonPlayground_realPython_flasktaskr_env_lib_python2_7_site-packages_wtforms_widgets_core.html'
p1108
sg10
S'/Users/ygrinman/Documents/pythonPlayground/realPython/flasktaskr/env/lib/python2.7/site-packages/wtforms/widgets/core'
p1109
sg12
g13
(g14
g15
NtRp1110
(dp1111
g18
I1
sg19
I0
sg20
I117
sg21
I0
sg22
I0
sg23
I44
sg24
I0
sbssg25
S'\xb4\xcfP\xc9\xe7\xd7u?\x86\xda\xb9\xecIr\x88\xe1'
p1112
ssS'_Users_ygrinman_Documents_pythonPlayground_realPython_flasktaskr_env_lib_python2_7_site-packages_werkzeug__internal'
p1113
(dp1114
g6
(dp1115
g8
S'_Users_ygrinman_Documents_pythonPlayground_realPython_flasktaskr_env_lib_python2_7_site-packages_werkzeug__internal.html'
p1116
sg10
S'/Users/ygrinman/Documents/pythonPlayground/realPython/flasktaskr/env/lib/python2.7/site-packages/werkzeug/_internal'
p1117
sg12
g13
(g14
g15
NtRp1118
(dp1119
g18
I1
sg19
I0
sg20
I235
sg21
I0
sg22
I0
sg23
I139
sg24
I0
sbssg25
S'\xb7\x06\x96\xef\xce\x02|"\x96\xf8U:\x8a!\x1b\x86'
p1120
ssS'views'
p1121
(dp1122
g6
(dp1123
g8
S'views.html'
p1124
sg10
g1121
sg12
g13
(g14
g15
NtRp1125
(dp1126
g18
I1
sg19
I0
sg20
I94
sg21
I0
sg22
I0
sg23
I38
sg24
I0
sbssg25
S'\x10\xce\xe2\x15\xfd\xed2\x95\xe9x\xb5\xaf\x02B\xfa\x9d'
p1127
ssS'_Users_ygrinman_Documents_pythonPlayground_realPython_flasktaskr_env_lib_python2_7_site-packages_sqlalchemy_sql_util'
p1128
(dp1129
g6
(dp1130
g8
S'_Users_ygrinman_Documents_pythonPlayground_realPython_flasktaskr_env_lib_python2_7_site-packages_sqlalchemy_sql_util.html'
p1131
sg10
S'/Users/ygrinman/Documents/pythonPlayground/realPython/flasktaskr/env/lib/python2.7/site-packages/sqlalchemy/sql/util'
p1132
sg12
g13
(g14
g15
NtRp1133
(dp1134
g18
I1
sg19
I0
sg20
I287
sg21
I0
sg22
I0
sg23
I196
sg24
I0
sbssg25
S'\xbc\xab\xa3)zm\x10\x7f2\x8a\x19\x93\x8f4s?'
p1135
ssS'_Users_ygrinman_Documents_pythonPlayground_realPython_flasktaskr_env_lib_python2_7_site-packages_sqlalchemy_sql_elements'
p1136
(dp1137
g6
(dp1138
g8
S'_Users_ygrinman_Documents_pythonPlayground_realPython_flasktaskr_env_lib_python2_7_site-packages_sqlalchemy_sql_elements.html'
p1139
sg10
S'/Users/ygrinman/Documents/pythonPlayground/realPython/flasktaskr/env/lib/python2.7/site-packages/sqlalchemy/sql/elements'
p1140
sg12
g13
(g14
g15
NtRp1141
(dp1142
g18
I1
sg19
I0
sg20
I972
sg21
I0
sg22
I0
sg23
I425
sg24
I0
sbssg25
S'\xe2\xa5\xdc\x81\xa4G\xacM\xa7\xfeM\x9b\xb5\xb3\x15\xed'
p1143
ssS'_Users_ygrinman_Documents_pythonPlayground_realPython_flasktaskr_env_lib_python2_7_site-packages_werkzeug_http'
p1144
(dp1145
g6
(dp1146
g8
S'_Users_ygrinman_Documents_pythonPlayground_realPython_flasktaskr_env_lib_python2_7_site-packages_werkzeug_http.html'
p1147
sg10
S'/Users/ygrinman/Documents/pythonPlayground/realPython/flasktaskr/env/lib/python2.7/site-packages/werkzeug/http'
p1148
sg12
g13
(g14
g15
NtRp1149
(dp1150
g18
I1
sg19
I0
sg20
I373
sg21
I4
sg22
I0
sg23
I269
sg24
I0
sbssg25
S'\xe1o\x16dt\xac\xcd\xd7\xbf\xfa\xe0\xfdH[\xef8'
p1151
ssS'_Users_ygrinman_Documents_pythonPlayground_realPython_flasktaskr_env_lib_python2_7_site-packages_flask_exthook'
p1152
(dp1153
g6
(dp1154
g8
S'_Users_ygrinman_Documents_pythonPlayground_realPython_flasktaskr_env_lib_python2_7_site-packages_flask_exthook.html'
p1155
sg10
S'/Users/ygrinman/Documents/pythonPlayground/realPython/flasktaskr/env/lib/python2.7/site-packages/flask/exthook'
p1156
sg12
g13
(g14
g15
NtRp1157
(dp1158
g18
I1
sg19
I0
sg20
I54
sg21
I0
sg22
I0
sg23
I24
sg24
I0
sbssg25
S'\x81\xa8\x93h\x123\rtT\xd2\xe8\x8ejs\x0f\x12'
p1159
ssS'_Users_ygrinman_Documents_pythonPlayground_realPython_flasktaskr_env_lib_python2_7_site-packages_sqlalchemy_engine_threadlocal'
p1160
(dp1161
g6
(dp1162
g8
S'_Users_ygrinman_Documents_pythonPlayground_realPython_flasktaskr_env_lib_python2_7_site-packages_sqlalchemy_engine_threadlocal.html'
p1163
sg10
S'/Users/ygrinman/Documents/pythonPlayground/realPython/flasktaskr/env/lib/python2.7/site-packages/sqlalchemy/engine/threadlocal'
p1164
sg12
g13
(g14
g15
NtRp1165
(dp1166
g18
I1
sg19
I0
sg20
I80
sg21
I0
sg22
I0
sg23
I55
sg24
I0
sbssg25
S'\xae\x91\xbb(O\xde>q\x82]ky]\x87\x80\xd5'
p1167
ssS'_Users_ygrinman_Documents_pythonPlayground_realPython_flasktaskr_env_lib_python2_7_site-packages_flask_wtf___init__'
p1168
(dp1169
g6
(dp1170
g8
S'_Users_ygrinman_Documents_pythonPlayground_realPython_flasktaskr_env_lib_python2_7_site-packages_flask_wtf___init__.html'
p1171
sg10
S'/Users/ygrinman/Documents/pythonPlayground/realPython/flasktaskr/env/lib/python2.7/site-packages/flask_wtf/__init__'
p1172
sg12
g13
(g14
g15
NtRp1173
(dp1174
g18
I1
sg19
I0
sg20
I6
sg21
I0
sg22
I0
sg23
I0
sg24
I0
sbssg25
S'\xd5\xec{9\x18O\xf7gi\x7f\xdc\x8cx#\x18\x82'
p1175
ssS'config'
p1176
(dp1177
g6
(dp1178
g8
S'config.html'
p1179
sg10
g1176
sg12
g13
(g14
g15
NtRp1180
(dp1181
g18
I1
sg19
I0
sg20
I7
sg21
I0
sg22
I0
sg23
I0
sg24
I0
sbssg25
S';q\xa7\xdc\x08%\x16\xf5\x97v^\x19N\xed\r\x17'
p1182
ssS'_Users_ygrinman_Documents_pythonPlayground_realPython_flasktaskr_env_lib_python2_7_site-packages_werkzeug_datastructures'
p1183
(dp1184
g6
(dp1185
g8
S'_Users_ygrinman_Documents_pythonPlayground_realPython_flasktaskr_env_lib_python2_7_site-packages_werkzeug_datastructures.html'
p1186
sg10
S'/Users/ygrinman/Documents/pythonPlayground/realPython/flasktaskr/env/lib/python2.7/site-packages/werkzeug/datastructures'
p1187
sg12
g13
(g14
g15
NtRp1188
(dp1189
g18
I1
sg19
I0
sg20
I1281
sg21
I0
sg22
I0
sg23
I767
sg24
I0
sbssg25
S'\x81\xc9\xf9\x05\xda\xf2\xad\xa7"\xc2M\xa0/\x16\xc2\xd7'
p1190
ssS'_Users_ygrinman_Documents_pythonPlayground_realPython_flasktaskr_env_lib_python2_7_site-packages_wtforms_fields_simple'
p1191
(dp1192
g6
(dp1193
g8
S'_Users_ygrinman_Documents_pythonPlayground_realPython_flasktaskr_env_lib_python2_7_site-packages_wtforms_fields_simple.html'
p1194
sg10
S'/Users/ygrinman/Documents/pythonPlayground/realPython/flasktaskr/env/lib/python2.7/site-packages/wtforms/fields/simple'
p1195
sg12
g13
(g14
g15
NtRp1196
(dp1197
g18
I1
sg19
I0
sg20
I14
sg21
I0
sg22
I0
sg23
I0
sg24
I0
sbssg25
S'\x8c\x14\xe9\\\xf9\xa9$\x0f\x08\xba\xc7\xf4Y\xff;e'
p1198
ssS'_Users_ygrinman_Documents_pythonPlayground_realPython_flasktaskr_env_lib_python2_7_site-packages_sqlalchemy_events'
p1199
(dp1200
g6
(dp1201
g8
S'_Users_ygrinman_Documents_pythonPlayground_realPython_flasktaskr_env_lib_python2_7_site-packages_sqlalchemy_events.html'
p1202
sg10
S'/Users/ygrinman/Documents/pythonPlayground/realPython/flasktaskr/env/lib/python2.7/site-packages/sqlalchemy/events'
p1203
sg12
g13
(g14
g15
NtRp1204
(dp1205
g18
I1
sg19
I0
sg20
I95
sg21
I0
sg22
I0
sg23
I23
sg24
I0
sbssg25
S'\xb5\r\x88\xa1U\xe3=\xbac_\xdc\xc9\xba\xda\xe0\xa3'
p1206
ssS'models'
p1207
(dp1208
g6
(dp1209
g8
S'models.html'
p1210
sg10
g1207
sg12
g13
(g14
g15
NtRp1211
(dp1212
g18
I1
sg19
I0
sg20
I33
sg21
I0
sg22
I0
sg23
I2
sg24
I0
sbssg25
S'*\xf5_\xe5\x8a\xc2\x86A\xc65S\x11wA\xdev'
p1213
ssS'_Users_ygrinman_Documents_pythonPlayground_realPython_flasktaskr_env_lib_python2_7_site-packages_sqlalchemy_engine_reflection'
p1214
(dp1215
g6
(dp1216
g8
S'_Users_ygrinman_Documents_pythonPlayground_realPython_flasktaskr_env_lib_python2_7_site-packages_sqlalchemy_engine_reflection.html'
p1217
sg10
S'/Users/ygrinman/Documents/pythonPlayground/realPython/flasktaskr/env/lib/python2.7/site-packages/sqlalchemy/engine/reflection'
p1218
sg12
g13
(g14
g15
NtRp1219
(dp1220
g18
I1
sg19
I0
sg20
I165
sg21
I0
sg22
I0
sg23
I137
sg24
I0
sbssg25
S'\xe4a\xb1\\9e\xc6-\xc4+C\xbe7>\xf1\x1f'
p1221
ssS'_Users_ygrinman_Documents_pythonPlayground_realPython_flasktaskr_env_lib_python2_7_site-packages_jinja2_compiler'
p1222
(dp1223
g6
(dp1224
g8
S'_Users_ygrinman_Documents_pythonPlayground_realPython_flasktaskr_env_lib_python2_7_site-packages_jinja2_compiler.html'
p1225
sg10
S'/Users/ygrinman/Documents/pythonPlayground/realPython/flasktaskr/env/lib/python2.7/site-packages/jinja2/compiler'
p1226
sg12
g13
(g14
g15
NtRp1227
(dp1228
g18
I1
sg19
I0
sg20
I1030
sg21
I0
sg22
I0
sg23
I523
sg24
I0
sbssg25
S'\xaeC\xa1G!\xccC\xb7\xa3\x1e\xdeO\xbc\xf0[}'
p1229
ssS'_Users_ygrinman_Documents_pythonPlayground_realPython_flasktaskr_env_lib_python2_7_site-packages_flask_blueprints'
p1230
(dp1231
g6
(dp1232
g8
S'_Users_ygrinman_Documents_pythonPlayground_realPython_flasktaskr_env_lib_python2_7_site-packages_flask_blueprints.html'
p1233
sg10
S'/Users/ygrinman/Documents/pythonPlayground/realPython/flasktaskr/env/lib/python2.7/site-packages/flask/blueprints'
p1234
sg12
g13
(g14
g15
NtRp1235
(dp1236
g18
I1
sg19
I0
sg20
I156
sg21
I0
sg22
I0
sg23
I118
sg24
I0
sbssg25
S'1D\xa1\x05E/\x93\xfd|\xb3q\xa6\x8a\xa6\xcc9'
p1237
ssS'_Users_ygrinman_Documents_pythonPlayground_realPython_flasktaskr_env_lib_python2_7_site-packages_sqlalchemy_orm_unitofwork'
p1238
(dp1239
g6
(dp1240
g8
S'_Users_ygrinman_Documents_pythonPlayground_realPython_flasktaskr_env_lib_python2_7_site-packages_sqlalchemy_orm_unitofwork.html'
p1241
sg10
S'/Users/ygrinman/Documents/pythonPlayground/realPython/flasktaskr/env/lib/python2.7/site-packages/sqlalchemy/orm/unitofwork'
p1242
sg12
g13
(g14
g15
NtRp1243
(dp1244
g18
I1
sg19
I0
sg20
I325
sg21
I0
sg22
I0
sg23
I155
sg24
I0
sbssg25
S'\x11\x86#=\xa6mkANb\x8f\xaa:\xb8h\x0c'
p1245
ssS'_Users_ygrinman_Documents_pythonPlayground_realPython_flasktaskr_env_lib_python2_7_site-packages_flask_wtf_form'
p1246
(dp1247
g6
(dp1248
g8
S'_Users_ygrinman_Documents_pythonPlayground_realPython_flasktaskr_env_lib_python2_7_site-packages_flask_wtf_form.html'
p1249
sg10
S'/Users/ygrinman/Documents/pythonPlayground/realPython/flasktaskr/env/lib/python2.7/site-packages/flask_wtf/form'
p1250
sg12
g13
(g14
g15
NtRp1251
(dp1252
g18
I1
sg19
I0
sg20
I77
sg21
I0
sg22
I0
sg23
I34
sg24
I0
sbssg25
S"\xde\xe9U'\xac\xc4\x03e\x95\xdc\xacG\xff\x1d\xae\x91"
p1253
ssS'_Users_ygrinman_Documents_pythonPlayground_realPython_flasktaskr_env_lib_python2_7_site-packages_wtforms_ext_csrf___init__'
p1254
(dp1255
g6
(dp1256
g8
S'_Users_ygrinman_Documents_pythonPlayground_realPython_flasktaskr_env_lib_python2_7_site-packages_wtforms_ext_csrf___init__.html'
p1257
sg10
S'/Users/ygrinman/Documents/pythonPlayground/realPython/flasktaskr/env/lib/python2.7/site-packages/wtforms/ext/csrf/__init__'
p1258
sg12
g13
(g14
g15
NtRp1259
(dp1260
g18
I1
sg19
I0
sg20
I1
sg21
I0
sg22
I0
sg23
I0
sg24
I0
sbssg25
S'\x00dH\xb0G\xd3\x88\xe75\x1e?\xd3W\x82\x93o'
p1261
ssS'_Users_ygrinman_Documents_pythonPlayground_realPython_flasktaskr_env_lib_python2_7_site-packages_wtforms_validators'
p1262
(dp1263
g6
(dp1264
g8
S'_Users_ygrinman_Documents_pythonPlayground_realPython_flasktaskr_env_lib_python2_7_site-packages_wtforms_validators.html'
p1265
sg10
S'/Users/ygrinman/Documents/pythonPlayground/realPython/flasktaskr/env/lib/python2.7/site-packages/wtforms/validators'
p1266
sg12
g13
(g14
g15
NtRp1267
(dp1268
g18
I1
sg19
I0
sg20
I225
sg21
I0
sg22
I0
sg23
I140
sg24
I0
sbssg25
S'\x16<\xa5\x05f?\xbc\xe3\xf1\x0c\xb2\xaf\x12B\x88S'
p1269
ssS'_Users_ygrinman_Documents_pythonPlayground_realPython_flasktaskr_env_lib_python2_7_site-packages_sqlalchemy_sql_dml'
p1270
(dp1271
g6
(dp1272
g8
S'_Users_ygrinman_Documents_pythonPlayground_realPython_flasktaskr_env_lib_python2_7_site-packages_sqlalchemy_sql_dml.html'
p1273
sg10
S'/Users/ygrinman/Documents/pythonPlayground/realPython/flasktaskr/env/lib/python2.7/site-packages/sqlalchemy/sql/dml'
p1274
sg12
g13
(g14
g15
NtRp1275
(dp1276
g18
I1
sg19
I0
sg20
I153
sg21
I0
sg22
I0
sg23
I74
sg24
I0
sbssg25
S'\xbf\xf7\xb3\xa22\xe4\xe9\x0f\xd3\x86\xb4@<\xcc\x02\xd6'
p1277
ssS'_Users_ygrinman_Documents_pythonPlayground_realPython_flasktaskr_env_lib_python2_7_site-packages_sqlalchemy_util_deprecations'
p1278
(dp1279
g6
(dp1280
g8
S'_Users_ygrinman_Documents_pythonPlayground_realPython_flasktaskr_env_lib_python2_7_site-packages_sqlalchemy_util_deprecations.html'
p1281
sg10
S'/Users/ygrinman/Documents/pythonPlayground/realPython/flasktaskr/env/lib/python2.7/site-packages/sqlalchemy/util/deprecations'
p1282
sg12
g13
(g14
g15
NtRp1283
(dp1284
g18
I1
sg19
I0
sg20
I66
sg21
I0
sg22
I0
sg23
I7
sg24
I0
sbssg25
S'\xa0x\x8e>\xf8\xe9\xbb\x88\xc9\x89uh-R\x02E'
p1285
ssS'_Users_ygrinman_Documents_pythonPlayground_realPython_flasktaskr_env_lib_python2_7_site-packages_jinja2_runtime'
p1286
(dp1287
g6
(dp1288
g8
S'_Users_ygrinman_Documents_pythonPlayground_realPython_flasktaskr_env_lib_python2_7_site-packages_jinja2_runtime.html'
p1289
sg10
S'/Users/ygrinman/Documents/pythonPlayground/realPython/flasktaskr/env/lib/python2.7/site-packages/jinja2/runtime'
p1290
sg12
g13
(g14
g15
NtRp1291
(dp1292
g18
I1
sg19
I0
sg20
I291
sg21
I0
sg22
I0
sg23
I159
sg24
I0
sbssg25
S',\x18\xb0\xeb\xc5\x1a\x98\x1ab7\xb2\x8a\xe3\x9f%\xbb'
p1293
ssS'_Users_ygrinman_Documents_pythonPlayground_realPython_flasktaskr_env_lib_python2_7_site-packages_sqlalchemy_dialects_sqlite_pysqlite'
p1294
(dp1295
g6
(dp1296
g8
S'_Users_ygrinman_Documents_pythonPlayground_realPython_flasktaskr_env_lib_python2_7_site-packages_sqlalchemy_dialects_sqlite_pysqlite.html'
p1297
sg10
S'/Users/ygrinman/Documents/pythonPlayground/realPython/flasktaskr/env/lib/python2.7/site-packages/sqlalchemy/dialects/sqlite/pysqlite'
p1298
sg12
g13
(g14
g15
NtRp1299
(dp1300
g18
I1
sg19
I0
sg20
I67
sg21
I0
sg22
I0
sg23
I17
sg24
I0
sbssg25
S'\x1fB\x8f.aRh\xbd\xe1\x9a\xday\xc0V\xbf\xf7'
p1301
ssS'_Users_ygrinman_Documents_pythonPlayground_realPython_flasktaskr_env_lib_python2_7_site-packages_flask_debughelpers'
p1302
(dp1303
g6
(dp1304
g8
S'_Users_ygrinman_Documents_pythonPlayground_realPython_flasktaskr_env_lib_python2_7_site-packages_flask_debughelpers.html'
p1305
sg10
S'/Users/ygrinman/Documents/pythonPlayground/realPython/flasktaskr/env/lib/python2.7/site-packages/flask/debughelpers'
p1306
sg12
g13
(g14
g15
NtRp1307
(dp1308
g18
I1
sg19
I0
sg20
I35
sg21
I0
sg22
I0
sg23
I25
sg24
I0
sbssg25
S'\xb1\x83\xab\xaa\xfbi\x87\xe1\x0515\x06\xb8\xe5\xcd\xa5'
p1309
ssS'_Users_ygrinman_Documents_pythonPlayground_realPython_flasktaskr_env_lib_python2_7_site-packages_itsdangerous'
p1310
(dp1311
g6
(dp1312
g8
S'_Users_ygrinman_Documents_pythonPlayground_realPython_flasktaskr_env_lib_python2_7_site-packages_itsdangerous.html'
p1313
sg10
S'/Users/ygrinman/Documents/pythonPlayground/realPython/flasktaskr/env/lib/python2.7/site-packages/itsdangerous'
p1314
sg12
g13
(g14
g15
NtRp1315
(dp1316
g18
I1
sg19
I0
sg20
I413
sg21
I0
sg22
I0
sg23
I167
sg24
I0
sbssg25
S'\x91 \x8f\xfd\xb3\xa1\xfc5J1\x0c\xcb%\xdb+K'
p1317
ssS'_Users_ygrinman_Documents_pythonPlayground_realPython_flasktaskr_env_lib_python2_7_site-packages_sqlalchemy_util_queue'
p1318
(dp1319
g6
(dp1320
g8
S'_Users_ygrinman_Documents_pythonPlayground_realPython_flasktaskr_env_lib_python2_7_site-packages_sqlalchemy_util_queue.html'
p1321
sg10
S'/Users/ygrinman/Documents/pythonPlayground/realPython/flasktaskr/env/lib/python2.7/site-packages/sqlalchemy/util/queue'
p1322
sg12
g13
(g14
g15
NtRp1323
(dp1324
g18
I1
sg19
I0
sg20
I88
sg21
I0
sg22
I0
sg23
I64
sg24
I0
sbssg25
S'\xba\x84\x1f\x81\x92\xc8\x1aCh\x1a\xe3%e\xbc\x05t'
p1325
ssS'_Users_ygrinman_Documents_pythonPlayground_realPython_flasktaskr_env_lib_python2_7_site-packages_sqlalchemy_dialects_sqlite_base'
p1326
(dp1327
g6
(dp1328
g8
S'_Users_ygrinman_Documents_pythonPlayground_realPython_flasktaskr_env_lib_python2_7_site-packages_sqlalchemy_dialects_sqlite_base.html'
p1329
sg10
S'/Users/ygrinman/Documents/pythonPlayground/realPython/flasktaskr/env/lib/python2.7/site-packages/sqlalchemy/dialects/sqlite/base'
p1330
sg12
g13
(g14
g15
NtRp1331
(dp1332
g18
I1
sg19
I0
sg20
I423
sg21
I0
sg22
I0
sg23
I245
sg24
I0
sbssg25
S'\x8e\xb3\xac\xcdm\xc6\x97\xc4\x18w\xe3\xd7\x1c\xfa\xa5\xd8'
p1333
ssS'_Users_ygrinman_Documents_pythonPlayground_realPython_flasktaskr_env_lib_python2_7_site-packages_sqlalchemy_event_api'
p1334
(dp1335
g6
(dp1336
g8
S'_Users_ygrinman_Documents_pythonPlayground_realPython_flasktaskr_env_lib_python2_7_site-packages_sqlalchemy_event_api.html'
p1337
sg10
S'/Users/ygrinman/Documents/pythonPlayground/realPython/flasktaskr/env/lib/python2.7/site-packages/sqlalchemy/event/api'
p1338
sg12
g13
(g14
g15
NtRp1339
(dp1340
g18
I1
sg19
I0
sg20
I24
sg21
I0
sg22
I0
sg23
I3
sg24
I0
sbssg25
S'^<\xcb\xff~\x97r+?\x11<\xcb\x97wE\x89'
p1341
ssS'_Users_ygrinman_Documents_pythonPlayground_realPython_flasktaskr_env_lib_python2_7_site-packages_sqlalchemy_engine_base'
p1342
(dp1343
g6
(dp1344
g8
S'_Users_ygrinman_Documents_pythonPlayground_realPython_flasktaskr_env_lib_python2_7_site-packages_sqlalchemy_engine_base.html'
p1345
sg10
S'/Users/ygrinman/Documents/pythonPlayground/realPython/flasktaskr/env/lib/python2.7/site-packages/sqlalchemy/engine/base'
p1346
sg12
g13
(g14
g15
NtRp1347
(dp1348
g18
I1
sg19
I0
sg20
I651
sg21
I0
sg22
I0
sg23
I337
sg24
I0
sbssg25
S'\x03Ie9\xb9V1\xd9\xb1\xbb\x02\xfc\x18]\x8d\xda'
p1349
ssS'_Users_ygrinman_Documents_pythonPlayground_realPython_flasktaskr_env_lib_python2_7_site-packages_sqlalchemy_orm_sync'
p1350
(dp1351
g6
(dp1352
g8
S'_Users_ygrinman_Documents_pythonPlayground_realPython_flasktaskr_env_lib_python2_7_site-packages_sqlalchemy_orm_sync.html'
p1353
sg10
S'/Users/ygrinman/Documents/pythonPlayground/realPython/flasktaskr/env/lib/python2.7/site-packages/sqlalchemy/orm/sync'
p1354
sg12
g13
(g14
g15
NtRp1355
(dp1356
g18
I1
sg19
I0
sg20
I56
sg21
I0
sg22
I0
sg23
I42
sg24
I0
sbssg25
S'~\tc\xbc\x17\x11k\x84Ix\xf0`\xb7\x8d\x9a\xb2'
p1357
ssS'_Users_ygrinman_Documents_pythonPlayground_realPython_flasktaskr_env_lib_python2_7_site-packages_sqlalchemy_sql_naming'
p1358
(dp1359
g6
(dp1360
g8
S'_Users_ygrinman_Documents_pythonPlayground_realPython_flasktaskr_env_lib_python2_7_site-packages_sqlalchemy_sql_naming.html'
p1361
sg10
S'/Users/ygrinman/Documents/pythonPlayground/realPython/flasktaskr/env/lib/python2.7/site-packages/sqlalchemy/sql/naming'
p1362
sg12
g13
(g14
g15
NtRp1363
(dp1364
g18
I1
sg19
I0
sg20
I84
sg21
I0
sg22
I0
sg23
I49
sg24
I0
sbssg25
S'\xb1\xdf\xebm \xc3\xa1HfI\xdcrt.\xbd\xf3'
p1365
ssS'_Users_ygrinman_Documents_pythonPlayground_realPython_flasktaskr_env_lib_python2_7_site-packages_sqlalchemy_orm_base'
p1366
(dp1367
g6
(dp1368
g8
S'_Users_ygrinman_Documents_pythonPlayground_realPython_flasktaskr_env_lib_python2_7_site-packages_sqlalchemy_orm_base.html'
p1369
sg10
S'/Users/ygrinman/Documents/pythonPlayground/realPython/flasktaskr/env/lib/python2.7/site-packages/sqlalchemy/orm/base'
p1370
sg12
g13
(g14
g15
NtRp1371
(dp1372
g18
I1
sg19
I0
sg20
I145
sg21
I0
sg22
I0
sg23
I39
sg24
I0
sbssg25
S'zRmS\xcd\x8fi\xc6\x11\xb6\xed/\xf1\x97a\xd4'
p1373
ssS'_Users_ygrinman_Documents_pythonPlayground_realPython_flasktaskr_env_lib_python2_7_site-packages_flask_ext___init__'
p1374
(dp1375
g6
(dp1376
g8
S'_Users_ygrinman_Documents_pythonPlayground_realPython_flasktaskr_env_lib_python2_7_site-packages_flask_ext___init__.html'
p1377
sg10
S'/Users/ygrinman/Documents/pythonPlayground/realPython/flasktaskr/env/lib/python2.7/site-packages/flask/ext/__init__'
p1378
sg12
g13
(g14
g15
NtRp1379
(dp1380
g18
I1
sg19
I0
sg20
I7
sg21
I0
sg22
I0
sg23
I0
sg24
I0
sbssg25
S'\xc7\xd4\x92\x9b\xb0\xb4h\xf1Rs\xd6\xf8vw\xdd\x07'
p1381
sssS'version'
p1382
S'3.7.1'
p1383
sS'settings'
p1384
S'\x98\xa8x\xfe"r\xb5K\x98\xb1N\\\x99\x9e\xf3\xe5'
p1385
sS'format'
p1386
I1
s.